(lp1
ccopy_reg
_reconstructor
p2
(csqlalchemy.util._collections
KeyedTuple
p3
c__builtin__
tuple
p4
(I1
I1
ttRp5
(dp6
S'_labels'
p7
(S'user_id'
p8
S'role_id'
p9
tp10
sg8
I1
sg9
I1
sbag2
(g3
g4
(I2
I2
ttRp11
(dp12
g7
g10
sg8
I2
sg9
I2
sba.