(lp1
ccopy_reg
_reconstructor
p2
(csqlalchemy.util._collections
KeyedTuple
p3
c__builtin__
tuple
p4
(I4
Vuser
p5
Vpbkdf2:sha1:1000$SH4SfaPq$b9469082972341a5e9ecbe55555476bbf9f633d4
p6
I01
ttRp7
(dp8
S'active'
p9
I01
sS'_labels'
p10
(S'id'
p11
S'login'
p12
S'password'
p13
g9
tp14
sg12
g5
sg13
g6
sg11
I4
sbag2
(g3
g4
(I1
Vadmin
p15
Vpbkdf2:sha1:1000$SIfaUGSL$79c5545231ae906a1f068f3a2575da41a716454f
p16
I01
ttRp17
(dp18
g9
I01
sg10
g14
sg12
g15
sg13
g16
sg11
I1
sba.