(lp1
ccopy_reg
_reconstructor
p2
(csqlalchemy.util._collections
KeyedTuple
p3
c__builtin__
tuple
p4
(I1
Vadmin
p5
Vpbkdf2:sha1:1000$SIfaUGSL$79c5545231ae906a1f068f3a2575da41a716454f
p6
I01
ttRp7
(dp8
S'active'
p9
I01
sS'_labels'
p10
(S'id'
p11
S'login'
p12
S'password'
p13
g9
tp14
sg12
g5
sg13
g6
sg11
I1
sbag2
(g3
g4
(I2
Vuser
p15
Vpbkdf2:sha1:1000$u6jiEFTO$89bf0a81fa656ebf3f06997f21e554472f0b838b
p16
I01
ttRp17
(dp18
g9
I01
sg10
g14
sg12
g15
sg13
g16
sg11
I2
sba.