(lp1
ccopy_reg
_reconstructor
p2
(csqlalchemy.util._collections
KeyedTuple
p3
c__builtin__
tuple
p4
(I1
Vadmin
p5
V1000$v17kHs6J$03ed2558498e3c34974db4f2c2b5de9bceeea451
p6
I01
ttRp7
(dp8
S'active'
p9
I01
sS'_labels'
p10
(S'id'
p11
S'login'
p12
S'password'
p13
g9
tp14
sg12
g5
sg13
g6
sg11
I1
sba.