(lp1
ccopy_reg
_reconstructor
p2
(csqlalchemy.util._collections
KeyedTuple
p3
c__builtin__
tuple
p4
(I1
Vsimplelogs_url
p5
VURL \u0441\u0438\u0441\u0442\u0435\u043c\u044b \u0436\u0443\u0440\u043d\u0430\u043b\u0438\u0440\u043e\u0432\u0430\u043d\u0438\u044f
p6
Vhttp://127.0.0.1:5500
p7
Vtext
p8
ttRp9
(dp10
S'_labels'
p11
(S'id'
p12
S'code'
p13
S'name'
p14
S'value'
p15
S'value_type'
p16
tp17
sg13
g5
sg14
g6
sg15
g7
sg16
g8
sg12
I1
sba.