(lp1
ccopy_reg
_reconstructor
p2
(csqlalchemy.util._collections
KeyedTuple
p3
c__builtin__
tuple
p4
(I49
V1
V\u041d\u0430\u0440\u0443\u0448\u0435\u043d\u0438\u0435 \u043f\u0440\u0430\u0432 \u0417\u041b \u043d\u0430 \u0432\u044b\u0431\u043e\u0440 \u041c\u041e
p5
I2
I0
ttRp6
(dp7
S'_labels'
p8
(S'id'
p9
S'code'
p10
S'name'
p11
S'finance_id'
p12
S'rerun'
p13
tp14
sg10
V1
sg11
g5
sg12
I2
sg13
I0
sg9
I49
sbag2
(g3
g4
(I50
V2
V\u041d\u0430\u0440\u0443\u0448\u0435\u043d\u0438\u0435 \u043f\u0440\u0430\u0432 \u0417\u041b \u043d\u0430 \u0432\u044b\u0431\u043e\u0440 \u0432\u0440\u0430\u0447\u0430
p15
I2
I0
ttRp16
(dp17
g8
g14
sg10
V2
sg11
g15
sg12
I2
sg13
I0
sg9
I50
sbag2
(g3
g4
(I51
V3
V\u041d\u0430\u0440\u0443\u0448\u0435\u043d\u0438\u0435 \u043f\u0440\u0430\u0432 \u0417\u041b (\u0443\u0441\u043b\u043e\u0432\u0438\u044f \u043e\u043a\u0430\u0437\u0430\u043d\u0438\u044f \u041c\u041f, \u0441\u0440\u043e\u043a\u0438 \u043e\u0436\u0438\u0434\u0430\u043d\u0438\u044f)
p18
I2
I0
ttRp19
(dp20
g8
g14
sg10
V3
sg11
g18
sg12
I2
sg13
I0
sg9
I51
sbag2
(g3
g4
(I52
V4
V\u041d\u0435\u043e\u0431\u043e\u0441\u043d\u043e\u0432\u0430\u043d\u043d\u044b\u0439 \u043e\u0442\u043a\u0430\u0437 \u0417\u041b \u0432 \u041c\u041f, \u043d\u0435 \u043f\u043e\u0432\u043b\u0435\u043a\u0448\u0438\u0439 \u0432\u0440\u0435\u0434\u0430
p21
I2
I0
ttRp22
(dp23
g8
g14
sg10
V4
sg11
g21
sg12
I2
sg13
I0
sg9
I52
sbag2
(g3
g4
(I53
V5
V\u041d\u0435\u043e\u0431\u043e\u0441\u043d\u043e\u0432\u0430\u043d\u043d\u044b\u0439 \u043e\u0442\u043a\u0430\u0437 \u0417\u041b \u0432 \u041c\u041f, \u043f\u043e\u0432\u043b\u0435\u043a\u0448\u0438\u0439 \u0432\u0440\u0435\u0434
p24
I2
I0
ttRp25
(dp26
g8
g14
sg10
V5
sg11
g24
sg12
I2
sg13
I0
sg9
I53
sbag2
(g3
g4
(I54
V6
V\u041d\u0435\u043e\u0431\u043e\u0441\u043d\u043e\u0432\u0430\u043d\u043d\u044b\u0439 \u043e\u0442\u043a\u0430\u0437 \u0417\u041b \u0432 \u041c\u041f \u043d\u0430 \u0434\u0440\u0443\u0433\u043e\u0439 \u0442\u0435\u0440\u0440., \u043d\u0435 \u043f\u043e\u0432\u043b\u0435\u043a\u0448\u0438\u0439 \u0432\u0440\u0435\u0434\u0430
p27
I2
I0
ttRp28
(dp29
g8
g14
sg10
V6
sg11
g27
sg12
I2
sg13
I0
sg9
I54
sbag2
(g3
g4
(I55
V7
V\u041d\u0435\u043e\u0431\u043e\u0441\u043d\u043e\u0432\u0430\u043d\u043d\u044b\u0439 \u043e\u0442\u043a\u0430\u0437 \u0417\u041b \u0432 \u041c\u041f \u043d\u0430 \u0434\u0440\u0443\u0433\u043e\u0439 \u0442\u0435\u0440\u0440., \u043f\u043e\u0432\u043b\u0435\u043a\u0448\u0438\u0439 \u0432\u0440\u0435\u0434
p30
I2
I0
ttRp31
(dp32
g8
g14
sg10
V7
sg11
g30
sg12
I2
sg13
I0
sg9
I55
sbag2
(g3
g4
(I56
V8
V\u0412\u0437\u0438\u043c\u0430\u043d\u0438\u0435 \u043f\u043b\u0430\u0442\u044b \u0437\u0430 \u041c\u041f, \u043f\u0440\u0435\u0434\u0443\u0441\u043c\u043e\u0442\u0440\u0435\u043d\u043d\u0443\u044e \u0442\u0435\u0440\u0440. \u043f\u0440\u043e\u0433\u0440\u0430\u043c\u043c\u043e\u0439 \u041e\u041c\u0421
p33
I2
I0
ttRp34
(dp35
g8
g14
sg10
V8
sg11
g33
sg12
I2
sg13
I0
sg9
I56
sbag2
(g3
g4
(I57
V9
V\u041f\u0440\u0438\u043e\u0431\u0440\u0435\u0442\u0435\u043d\u0438\u0435 \u043f\u0430\u0446\u0438\u0435\u043d\u0442\u043e\u043c \u041b\u0421, \u0432 \u0441\u0442\u0430\u0446\u0438\u043e\u043d\u0430\u0440\u0435, \u0438\u0437 \u043f\u0435\u0440\u0435\u0447\u043d\u044f
p36
I2
I0
ttRp37
(dp38
g8
g14
sg10
V9
sg11
g36
sg12
I2
sg13
I0
sg9
I57
sbag2
(g3
g4
(I58
V10
p39
V\u041e\u0442\u0441\u0443\u0442\u0441\u0442\u0432\u0438\u0435 \u0441\u0430\u0439\u0442\u0430 \u041c\u041e
p40
I2
I0
ttRp41
(dp42
g8
g14
sg10
g39
sg11
g40
sg12
I2
sg13
I0
sg9
I58
sbag2
(g3
g4
(I59
V11
p43
V\u041e\u0442\u0441\u0443\u0442\u0441\u0442\u0432\u0438\u0435 \u043d\u0430 \u0441\u0430\u0439\u0442\u0435 \u041c\u041e \u0438\u043d\u0444\u043e\u0440\u043c\u0430\u0446\u0438\u0438 \u043e \u0440\u0435\u0436\u0438\u043c\u0435 \u0440\u0430\u0431\u043e\u0442\u044b \u041c\u041e
p44
I2
I0
ttRp45
(dp46
g8
g14
sg10
g43
sg11
g44
sg12
I2
sg13
I0
sg9
I59
sbag2
(g3
g4
(I60
V12
p47
V\u041e\u0442\u0441\u0443\u0442\u0441\u0442\u0432\u0438\u0435 \u043d\u0430 \u0441\u0430\u0439\u0442\u0435 \u041c\u041e \u0438\u043d\u0444\u043e\u0440\u043c\u0430\u0446\u0438\u0438 \u043e\u0431 \u0443\u0441\u043b. \u043e\u043a\u0430\u0437\u0430\u043d\u0438\u044f \u041c\u041f, \u0443\u0441\u0442\u0430\u043d\u043e\u0432\u043b\u0435\u043d\u043d\u044b\u0445 \u0422\u041f\u0413\u0413
p48
I2
I0
ttRp49
(dp50
g8
g14
sg10
g47
sg11
g48
sg12
I2
sg13
I0
sg9
I60
sbag2
(g3
g4
(I61
V14
p51
V\u041e\u0442\u0441\u0443\u0442\u0441\u0442\u0432\u0438\u0435 \u043d\u0430 \u0441\u0430\u0439\u0442\u0435 \u041c\u041e \u0438\u043d\u0444\u043e\u0440\u043c\u0430\u0446\u0438\u0438 \u043e \u043f\u043e\u043a\u0430\u0437\u0430\u0442\u0435\u043b\u044f\u0445 \u0434\u043e\u0441\u0442\u0443\u043f\u043d\u043e\u0441\u0442\u0438 \u0438 \u043a\u0430\u0447\u0435\u0441\u0442\u0432\u0430 \u041c\u041f
p52
I2
I0
ttRp53
(dp54
g8
g14
sg10
g51
sg11
g52
sg12
I2
sg13
I0
sg9
I61
sbag2
(g3
g4
(I62
V13
p55
V\u041e\u0442\u0441\u0443\u0442\u0441\u0442\u0432\u0438\u0435 \u043d\u0430 \u0441\u0430\u0439\u0442\u0435 \u041c\u041e \u0438\u043d\u0444\u043e\u0440\u043c\u0430\u0446\u0438\u0438 \u043e \u0432\u0438\u0434\u0430\u0445 \u043e\u043a\u0430\u0437\u044b\u0432\u0430\u0435\u043c\u043e\u0439 \u041c\u041f
p56
I2
I0
ttRp57
(dp58
g8
g14
sg10
g55
sg11
g56
sg12
I2
sg13
I0
sg9
I62
sbag2
(g3
g4
(I66
V16
p59
V\u041e\u0442\u0441\u0443\u0442\u0441\u0442\u0432\u0438\u0435 \u043d\u0430 \u0441\u0430\u0439\u0442\u0435 \u041c\u041e \u0438\u043d\u0444\u043e\u0440\u043c\u0430\u0446\u0438\u0438 \u043e \u043b\u044c\u0433\u043e\u0442\u043d\u043e\u0439 \u0432\u044b\u0434\u0430\u0447\u0435 \u041b\u0421
p60
I2
I0
ttRp61
(dp62
g8
g14
sg10
g59
sg11
g60
sg12
I2
sg13
I0
sg9
I66
sbag2
(g3
g4
(I67
V15
p63
V\u041e\u0442\u0441\u0443\u0442\u0441\u0442\u0432\u0438\u0435 \u043d\u0430 \u0441\u0430\u0439\u0442\u0435 \u041c\u041e \u0438\u043d\u0444\u043e\u0440\u043c\u0430\u0446\u0438\u0438 \u043e \u0416\u041d\u0412\u041b\u0421
p64
I2
I0
ttRp65
(dp66
g8
g14
sg10
g63
sg11
g64
sg12
I2
sg13
I0
sg9
I67
sbag2
(g3
g4
(I68
V17
p67
V\u041e\u0442\u0441\u0443\u0442\u0441\u0442\u0432\u0438\u0435 \u0438\u043d\u0444\u043e\u0440\u043c. \u0441\u0442\u0435\u043d\u0434\u043e\u0432 \u0432 \u041c\u041e
p68
I2
I0
ttRp69
(dp70
g8
g14
sg10
g67
sg11
g68
sg12
I2
sg13
I0
sg9
I68
sbag2
(g3
g4
(I69
V18
p71
V\u041e\u0442\u0441\u0443\u0442\u0441\u0442\u0432\u0438\u0435 \u0432 \u041c\u041e \u0438\u043d\u0444\u043e\u0440\u043c\u0430\u0446\u0438\u0438 \u043e \u0440\u0435\u0436\u0438\u043c\u0435 \u0440\u0430\u0431\u043e\u0442\u044b
p72
I2
I0
ttRp73
(dp74
g8
g14
sg10
g71
sg11
g72
sg12
I2
sg13
I0
sg9
I69
sbag2
(g3
g4
(I70
V19
p75
V\u041e\u0442\u0441\u0443\u0442\u0441\u0442\u0432\u0438\u0435 \u0432 \u041c\u041e \u0438\u043d\u0444\u043e\u0440\u043c\u0430\u0446\u0438\u0438 \u043e\u0431 \u0443\u0441\u043b. \u043e\u043a\u0430\u0437\u0430\u043d\u0438\u044f \u041c\u041f, \u0443\u0441\u0442\u0430\u043d\u043e\u0432\u043b\u0435\u043d\u043d\u044b\u0445 \u0422\u041f\u0413\u0413
p76
I2
I0
ttRp77
(dp78
g8
g14
sg10
g75
sg11
g76
sg12
I2
sg13
I0
sg9
I70
sbag2
(g3
g4
(I71
V20
p79
V\u041e\u0442\u0441\u0443\u0442\u0441\u0442\u0432\u0438\u0435 \u0432 \u041c\u041e \u0438\u043d\u0444\u043e\u0440\u043c\u0430\u0446\u0438\u0438 \u043e \u0432\u0438\u0434\u0430\u0445 \u041c\u041f
p80
I2
I0
ttRp81
(dp82
g8
g14
sg10
g79
sg11
g80
sg12
I2
sg13
I0
sg9
I71
sbag2
(g3
g4
(I72
V21
p83
V\u041e\u0442\u0441\u0443\u0442\u0441\u0442\u0432\u0438\u0435 \u0432 \u041c\u041e \u0438\u043d\u0444\u043e\u0440\u043c\u0430\u0446\u0438\u0438 \u043e \u043f\u043e\u043a\u0430\u0437\u0430\u0442\u0435\u043b\u044f\u0445 \u0434\u043e\u0441\u0442\u0443\u043f\u043d\u043e\u0441\u0442\u0438 \u0438 \u043a\u0430\u0447\u0435\u0441\u0442\u0432\u0430 \u041c\u041f
p84
I2
I0
ttRp85
(dp86
g8
g14
sg10
g83
sg11
g84
sg12
I2
sg13
I0
sg9
I72
sbag2
(g3
g4
(I73
V22
p87
V\u041e\u0442\u0441\u0443\u0442\u0441\u0442\u0432\u0438\u0435 \u0432 \u041c\u041e \u0438\u043d\u0444\u043e\u0440\u043c\u0430\u0446\u0438\u0438 \u043e \u0436\u0438\u0437\u043d\u0435\u043d\u043d\u043e-\u043d\u0435\u043e\u0431\u0445\u043e\u0434\u0438\u043c\u044b\u0445 \u0438 \u0432\u0430\u0436\u043d\u0435\u0439\u0448\u0438\u0445 \u041b\u0421
p88
I2
I0
ttRp89
(dp90
g8
g14
sg10
g87
sg11
g88
sg12
I2
sg13
I0
sg9
I73
sbag2
(g3
g4
(I74
V23
p91
V\u041e\u0442\u0441\u0443\u0442\u0441\u0442\u0432\u0438\u0435 \u0432 \u041c\u041e \u0438\u043d\u0444\u043e\u0440\u043c\u0430\u0446\u0438\u0438 \u043e \u043b\u044c\u0433\u043e\u0442\u043d\u043e\u0439 \u0432\u044b\u0434\u0430\u0447\u0435 \u041b\u0421
p92
I2
I0
ttRp93
(dp94
g8
g14
sg10
g91
sg11
g92
sg12
I2
sg13
I0
sg9
I74
sbag2
(g3
g4
(I75
V24
p95
V\u041d\u0430\u0440\u0443\u0448\u0435\u043d\u0438\u044f \u0432\u0440\u0430\u0447\u0435\u0431\u043d\u043e\u0439 \u044d\u0442\u0438\u043a\u0438 \u0438 \u0434\u0435\u043e\u043d\u0442\u043e\u043b\u043e\u0433\u0438\u0438 \u0440\u0430\u0431\u043e\u0442\u043d\u0438\u043a\u0430\u043c\u0438 \u041c\u041e
p96
I2
I0
ttRp97
(dp98
g8
g14
sg10
g95
sg11
g96
sg12
I2
sg13
I0
sg9
I75
sbag2
(g3
g4
(I76
V25
p99
V\u041d\u0435\u0432\u044b\u043f\u043e\u043b\u043d\u0435\u043d\u0438\u0435 \u043c\u0435\u0434\u0438\u0446\u0438\u043d\u0441\u043a\u0438\u0445 \u0443\u0441\u043b\u0443\u0433, \u043d\u0435 \u043f\u043e\u0432\u043b\u0438\u044f\u0432\u0448\u0435\u0435 \u043d\u0430 \u0437\u0434\u043e\u0440\u043e\u0432\u044c\u0435 \u0417\u041b
p100
I2
I0
ttRp101
(dp102
g8
g14
sg10
g99
sg11
g100
sg12
I2
sg13
I0
sg9
I76
sbag2
(g3
g4
(I77
V26
p103
V\u041d\u0435\u0432\u044b\u043f\u043e\u043b\u043d\u0435\u043d\u0438\u0435 \u043d\u0435\u043e\u0431\u0445\u043e\u0434\u0438\u043c\u043e\u0439 \u041c\u041f, \u043f\u0440\u0438\u0432\u0435\u0434\u0448\u0435\u0435 \u043a \u0443\u0434\u043b\u0438\u043d\u0435\u043d\u0438\u044e \u0441\u0440\u043e\u043a\u043e\u0432 \u043b\u0435\u0447\u0435\u043d\u0438\u044f (\u0437\u0430 \u0438\u0441\u043a\u043b\u044e\u0447\u0435\u043d\u0438\u0435\u043c \u043e\u0442\u043a\u0430\u0437\u0430 \u0417\u041b)
p104
I2
I0
ttRp105
(dp106
g8
g14
sg10
g103
sg11
g104
sg12
I2
sg13
I0
sg9
I77
sbag2
(g3
g4
(I78
V27
p107
V\u041d\u0435\u0432\u044b\u043f\u043e\u043b\u043d\u0435\u043d\u0438\u0435 \u043d\u0435\u043e\u0431\u0445\u043e\u0434\u0438\u043c\u043e\u0439 \u041c\u041f \u0417\u041b, \u043f\u043e\u0432\u043b\u0435\u043a\u0448\u0435\u0435 \u0432\u0440\u0435\u0434
p108
I2
I0
ttRp109
(dp110
g8
g14
sg10
g107
sg11
g108
sg12
I2
sg13
I0
sg9
I78
sbag2
(g3
g4
(I79
V28
p111
V\u041d\u0435\u0432\u044b\u043f\u043e\u043b\u043d\u0435\u043d\u0438\u0435 \u043d\u0435\u043e\u0431\u0445\u043e\u0434\u0438\u043c\u043e\u0439 \u041c\u041f, \u043f\u0440\u0438\u0432\u0435\u0434\u0448\u0435\u0435 \u043a \u0438\u043d\u0432\u0430\u043b\u0438\u0434\u0438\u0437\u0430\u0446\u0438\u0438
p112
I2
I0
ttRp113
(dp114
g8
g14
sg10
g111
sg11
g112
sg12
I2
sg13
I0
sg9
I79
sbag2
(g3
g4
(I80
V29
p115
V\u041d\u0435\u0432\u044b\u043f\u043e\u043b\u043d\u0435\u043d\u0438\u0435 \u043d\u0435\u043e\u0431\u0445\u043e\u0434\u0438\u043c\u043e\u0439 \u041c\u041f, \u043f\u0440\u0438\u0432\u0435\u0434\u0448\u0435\u0435 \u043a \u043b\u0435\u0442\u0430\u043b\u044c\u043d\u043e\u043c\u0443 \u0438\u0441\u0445\u043e\u0434\u0443
p116
I2
I0
ttRp117
(dp118
g8
g14
sg10
g115
sg11
g116
sg12
I2
sg13
I0
sg9
I80
sbag2
(g3
g4
(I81
V30
p119
V\u041d\u0435\u043e\u0431\u043e\u0441\u043d\u043e\u0432\u0430\u043d\u043d\u043e\u0435 \u0443\u0434\u043b\u0438\u043d\u0435\u043d\u0438\u0435 \u0441\u0440\u043e\u043a\u043e\u0432, \u0443\u0434\u043e\u0440\u043e\u0436\u0430\u043d\u0438\u0435 \u0441\u0442\u043e\u0438\u043c\u043e\u0441\u0442\u0438 \u043b\u0435\u0447\u0435\u043d\u0438\u044f, \u043d\u043e \u043d\u0435 \u043f\u043e\u0432\u043b\u0435\u043a\u0448\u0435\u0435 \u0432\u0440\u0435\u0434
p120
I2
I0
ttRp121
(dp122
g8
g14
sg10
g119
sg11
g120
sg12
I2
sg13
I0
sg9
I81
sbag2
(g3
g4
(I82
V31
p123
V\u041d\u0435\u043e\u0431\u043e\u0441\u043d\u043e\u0432\u0430\u043d\u043d\u0430\u044f \u041c\u041f, \u043f\u043e\u0432\u043b\u0435\u043a\u0448\u0430\u044f \u0432\u0440\u0435\u0434
p124
I2
I0
ttRp125
(dp126
g8
g14
sg10
g123
sg11
g124
sg12
I2
sg13
I0
sg9
I82
sbag2
(g3
g4
(I83
V32
p127
V\u041f\u0440\u0435\u0436\u0434\u0435\u0432\u0440\u0435\u043c\u0435\u043d\u043d\u043e\u0435 \u043f\u0440\u0435\u043a\u0440\u0430\u0449\u0435\u043d\u0438\u0435 \u043b\u0435\u0447\u0435\u0431\u043d\u044b\u0445 \u043c\u0435\u0440\u043e\u043f\u0440\u0438\u044f\u0442\u0438\u0439
p128
I2
I0
ttRp129
(dp130
g8
g14
sg10
g127
sg11
g128
sg12
I2
sg13
I0
sg9
I83
sbag2
(g3
g4
(I84
V33
p131
V\u041f\u043e\u0432\u0442\u043e\u0440\u043d\u043e\u0435 \u043e\u0431\u043e\u0441\u043d\u043e\u0432\u0430\u043d\u043d\u043e\u0435 \u043e\u0431\u0440\u0430\u0449\u0435\u043d\u0438\u0435 \u0417\u041b \u0437\u0430 \u041c\u041f
p132
I2
I0
ttRp133
(dp134
g8
g14
sg10
g131
sg11
g132
sg12
I2
sg13
I0
sg9
I84
sbag2
(g3
g4
(I85
V34
p135
V\u041d\u0430\u0440\u0443\u0448\u0435\u043d\u0438\u0435 \u043f\u0440\u0435\u0435\u043c\u0441\u0442\u0432\u0435\u043d\u043d\u043e\u0441\u0442\u0438 \u0432 \u043b\u0435\u0447\u0435\u043d\u0438\u0438 , \u043f\u0440\u0438\u0432\u0435\u0434\u0448\u0435\u0435 \u043a \u0443\u0432\u0435\u043b\u0438\u0447\u0435\u043d\u0438\u044e \u0441\u0440\u043e\u043a\u043e\u0432 \u043b\u0435\u0447\u0435\u043d\u0438\u044f \u0438\u043b\u0438 \u043f\u043e\u0432\u043b\u0435\u043a\u0448\u0435\u0435 \u0432\u0440\u0435\u0434
p136
I2
I0
ttRp137
(dp138
g8
g14
sg10
g135
sg11
g136
sg12
I2
sg13
I0
sg9
I85
sbag2
(g3
g4
(I86
V35
p139
V\u041d\u0435\u043e\u0431\u043e\u0441\u043d\u043e\u0432\u0430\u043d\u043d\u0430\u044f \u0433\u043e\u0441\u043f\u0438\u0442\u0430\u043b\u0438\u0437\u0430\u0446\u0438\u044f \u0417\u041b
p140
I2
I0
ttRp141
(dp142
g8
g14
sg10
g139
sg11
g140
sg12
I2
sg13
I0
sg9
I86
sbag2
(g3
g4
(I87
V36
p143
V\u041d\u0435\u043f\u0440\u043e\u0444\u0438\u043b\u044c\u043d\u0430\u044f \u0433\u043e\u0441\u043f\u0438\u0442\u0430\u043b\u0438\u0437\u0430\u0446\u0438\u044f \u0417\u041b
p144
I2
I0
ttRp145
(dp146
g8
g14
sg10
g143
sg11
g144
sg12
I2
sg13
I0
sg9
I87
sbag2
(g3
g4
(I88
V37
p147
V\u041d\u0435\u043e\u0431\u043e\u0441\u043d\u043e\u0432\u0430\u043d\u043d\u043e\u0435 \u0443\u0434\u043b\u0438\u043d\u0435\u043d\u0438\u0435 \u0441\u0440\u043e\u043a\u043e\u0432 \u043b\u0435\u0447\u0435\u043d\u0438\u044f \u0438 \u0443\u0432\u0435\u043b\u0438\u0447\u0435\u043d\u0438\u0435 \u043a\u043e\u043b\u0438\u0447\u0435\u0441\u0442\u0432\u0430 \u043c\u0435\u0434\u0438\u0446\u0438\u043d\u0441\u043a\u0438\u0445 \u0443\u0441\u043b\u0443\u0433 \u043f\u043e \u0432\u0438\u043d\u0435 \u041c\u041e
p148
I2
I0
ttRp149
(dp150
g8
g14
sg10
g147
sg11
g148
sg12
I2
sg13
I0
sg9
I88
sbag2
(g3
g4
(I89
V38
p151
V\u041f\u043e\u0432\u0442\u043e\u0440\u043d\u043e\u0435 \u043f\u043e\u0441\u0435\u0449\u0435\u043d\u0438\u0435 \u0432\u0440\u0430\u0447\u0430 \u043e\u0434\u043d\u043e\u0439 \u0438 \u0442\u043e\u0439 \u0436\u0435 \u0441\u043f\u0435\u0446\u0438\u0430\u043b\u044c\u043d\u043e\u0441\u0442\u0438 \u0432 \u043e\u0434\u0438\u043d \u0434\u0435\u043d\u044c \u043f\u0440\u0438 \u0430\u043c\u0431\u0443\u043b\u0430\u0442\u043e\u0440\u043d\u043e\u0439 \u041c\u041f
p152
I2
I0
ttRp153
(dp154
g8
g14
sg10
g151
sg11
g152
sg12
I2
sg13
I0
sg9
I89
sbag2
(g3
g4
(I90
V39
p155
V\u0414\u0435\u0439\u0441\u0442\u0432\u0438\u0435 \u0438\u043b\u0438 \u0431\u0435\u0437\u0434\u0435\u0439\u0441\u0442\u0432\u0438\u0435 \u043c\u0435\u0434. \u043f\u0435\u0440\u0441\u043e\u043d\u0430\u043b\u0430, \u043e\u0431\u0443\u0441\u043b\u043e\u0432\u0438\u0432\u0448\u0435\u0435 \u0440\u0430\u0437\u0432\u0438\u0442\u0438\u0435 \u043d\u043e\u0432\u043e\u0433\u043e \u0437\u0430\u0431\u043e\u043b\u0435\u0432\u0430\u043d\u0438\u044f
p156
I2
I0
ttRp157
(dp158
g8
g14
sg10
g155
sg11
g156
sg12
I2
sg13
I0
sg9
I90
sbag2
(g3
g4
(I91
V40
p159
V\u041d\u0435\u043e\u0431\u043e\u0441\u043d\u043e\u0432\u0430\u043d\u043d\u043e\u0435 \u0438\u043b\u0438 \u043d\u0435\u0432\u0435\u0440\u043d\u043e\u0435 \u043d\u0430\u0437\u043d\u0430\u0447\u0435\u043d\u0438\u0435 \u041b\u0421
p160
I2
I0
ttRp161
(dp162
g8
g14
sg10
g159
sg11
g160
sg12
I2
sg13
I0
sg9
I91
sbag2
(g3
g4
(I92
V41
p163
V\u041d\u0435\u0432\u044b\u043f\u043e\u043b\u043d\u0435\u043d\u0438\u0435 \u043f\u043e \u0432\u0438\u043d\u0435 \u041c\u041e \u043e\u0431\u044f\u0437\u0430\u0442\u0435\u043b\u044c\u043d\u043e\u0433\u043e \u043f\u0430\u0442\u043e\u043b\u043e\u0433\u043e\u0430\u043d\u0430\u0442\u043e\u043c\u0438\u0447\u0435\u0441\u043a\u043e\u0433\u043e \u0432\u0441\u043a\u0440\u044b\u0442\u0438\u044f
p164
I2
I0
ttRp165
(dp166
g8
g14
sg10
g163
sg11
g164
sg12
I2
sg13
I0
sg9
I92
sbag2
(g3
g4
(I93
V42
p167
V\u041d\u0430\u043b\u0438\u0447\u0438\u0435 \u0440\u0430\u0441\u0445\u043e\u0436\u0434\u0435\u043d\u0438\u0439 \u043a\u043b\u0438\u043d\u0438\u0447\u0435\u0441\u043a\u043e\u0433\u043e \u0438 \u043f\u0430\u0442\u043e\u043b\u043e\u0433\u043e\u0430\u043d\u0430\u0442\u043e\u043c\u0438\u0447\u0435\u0441\u043a\u043e\u0433\u043e \u0434\u0438\u0430\u0433\u043d\u043e\u0437\u043e\u0432 2-3 \u043a\u0430\u0442\u0435\u0433\u043e\u0440\u0438\u0438
p168
I2
I0
ttRp169
(dp170
g8
g14
sg10
g167
sg11
g168
sg12
I2
sg13
I0
sg9
I93
sbag2
(g3
g4
(I94
V43
p171
V\u041d\u0435\u043f\u0440\u0435\u0434\u0441\u0442\u0430\u0432\u043b\u0435\u043d\u0438\u0435 \u043c\u0435\u0434. \u0434\u043e\u043a\u0443\u043c\u0435\u043d\u0442\u043e\u0432 \u043f\u0440\u0438 \u043e\u043a\u0430\u0437\u0430\u043d\u0438\u0438 \u041c\u041f
p172
I2
I0
ttRp173
(dp174
g8
g14
sg10
g171
sg11
g172
sg12
I2
sg13
I0
sg9
I94
sbag2
(g3
g4
(I95
V44
p175
V\u0414\u0435\u0444\u0435\u043a\u0442\u044b \u043e\u0444\u043e\u0440\u043c\u043b\u0435\u043d\u0438\u044f \u043f\u0435\u0440\u0432\u0438\u0447\u043d\u043e\u0439 \u043c\u0435\u0434\u0438\u0446\u0438\u043d\u0441\u043a\u043e\u0439 \u0434\u043e\u043a\u0443\u043c\u0435\u043d\u0442\u0430\u0446\u0438\u0438
p176
I2
I0
ttRp177
(dp178
g8
g14
sg10
g175
sg11
g176
sg12
I2
sg13
I0
sg9
I95
sbag2
(g3
g4
(I96
V45
p179
V\u041e\u0442\u0441\u0443\u0442\u0441\u0442\u0432\u0438\u0435 \u0432 \u043f\u0435\u0440\u0432\u0438\u0447\u043d\u043e\u0439 \u0434\u043e\u043a\u0443\u043c\u0435\u043d\u0442\u0430\u0446\u0438\u0438 \u0441\u043e\u0433\u043b\u0430\u0441\u0438\u044f \u0417\u041b \u043d\u0430 \u041c\u041f
p180
I2
I0
ttRp181
(dp182
g8
g14
sg10
g179
sg11
g180
sg12
I2
sg13
I0
sg9
I96
sbag2
(g3
g4
(I97
V46
p183
V\u041d\u0430\u043b\u0438\u0447\u0438\u0435 \u043f\u0440\u0438\u0437\u043d\u0430\u043a\u043e\u0432 \u0444\u0430\u043b\u044c\u0441\u0438\u0444\u0438\u043a\u0430\u0446\u0438\u0438 \u043c\u0435\u0434\u0438\u0446\u0438\u043d\u0441\u043a\u043e\u0439 \u0434\u043e\u043a\u0443\u043c\u0435\u043d\u0442\u0430\u0446\u0438\u0438
p184
I2
I0
ttRp185
(dp186
g8
g14
sg10
g183
sg11
g184
sg12
I2
sg13
I0
sg9
I97
sbag2
(g3
g4
(I98
V47
p187
V\u041d\u0435 \u0441\u043e\u0432\u043f\u0430\u0434\u0435\u043d\u0438\u0435 \u0434\u0430\u0442\u044b \u041c\u041f \u0432 \u043f\u0435\u0440\u0432\u0438\u0447\u043d\u043e\u0439 \u0434\u043e\u043a-\u0438\u0438 \u0438 \u0434\u0430\u0442\u044b \u0442\u0430\u0431\u0435\u043b\u044f \u0440\u0430\u0431. \u0432\u0440\u0435\u043c\u0435\u043d\u0438
p188
I2
I0
ttRp189
(dp190
g8
g14
sg10
g187
sg11
g188
sg12
I2
sg13
I0
sg9
I98
sbag2
(g3
g4
(I99
V48
p191
V\u041d\u0435\u0441\u043e\u043e\u0442\u0432\u0435\u0442\u0441\u0442\u0432\u0438\u0435 \u0434\u0430\u043d\u043d\u044b\u0445 \u043f\u0435\u0440\u0432\u0438\u0447\u043d\u043e\u0439 \u043c\u0435\u0434. \u0434\u043e\u043a\u0443\u043c\u0435\u043d\u0442\u0430\u0446\u0438\u0438 \u0434\u0430\u043d\u043d\u044b\u043c \u0440\u0435\u0435\u0441\u0442\u0440\u0430 \u0441\u0447\u0435\u0442\u043e\u0432
p192
I2
I0
ttRp193
(dp194
g8
g14
sg10
g191
sg11
g192
sg12
I2
sg13
I0
sg9
I99
sbag2
(g3
g4
(I100
V49
p195
V\u041d\u0435\u0441\u043e\u043e\u0442\u0432\u0435\u0442\u0441\u0442\u0432\u0438\u0435 \u0434\u0430\u043d\u043d\u044b\u0445 \u043f\u0435\u0440\u0432\u0438\u0447\u043d\u043e\u0439 \u043c\u0435\u0434. \u0434\u043e\u043a\u0443\u043c\u0435\u043d\u0442\u0430\u0446\u0438\u0438 \u0438 \u0440\u0435\u0435\u0441\u0442\u0440\u0430 \u0441\u0447\u0435\u0442\u043e\u0432 \u043f\u043e \u0441\u0440\u043e\u043a\u0430\u043c \u043b\u0435\u0447\u0435\u043d\u0438\u044f
p196
I2
I0
ttRp197
(dp198
g8
g14
sg10
g195
sg11
g196
sg12
I2
sg13
I0
sg9
I100
sbag2
(g3
g4
(I101
V50
p199
V\u041e\u0448\u0438\u0431\u043a\u0438 \u0432 \u0440\u0435\u043a\u0432\u0438\u0437\u0438\u0442\u0430\u0445 \u043f\u0440\u0438 \u043e\u0444\u043e\u0440\u043c\u043b\u0435\u043d\u0438\u0438 \u0438 \u043f\u0440\u0435\u0434\u044a\u044f\u0432\u043b\u0435\u043d\u0438\u0438 \u0441\u0447\u0435\u0442\u043e\u0432
p200
I2
I0
ttRp201
(dp202
g8
g14
sg10
g199
sg11
g200
sg12
I2
sg13
I0
sg9
I101
sbag2
(g3
g4
(I102
V51
p203
V\u041d\u0435\u0441\u043e\u043e\u0442\u0432\u0435\u0442\u0441\u0442\u0432\u0438\u0435 \u0441\u0443\u043c\u043c\u044b \u0432 \u0441\u0447\u0435\u0442\u0435 \u043d\u0430 \u043e\u043f\u043b\u0430\u0442\u0443 \u0438 \u0432 \u0438\u0442\u043e\u0433\u043e\u0432\u043e\u0439 \u0441\u0443\u043c\u043c\u044b \u043f\u043e \u0440\u0435\u0435\u0441\u0442\u0440\u0443 \u0441\u0447\u0435\u0442\u043e\u0432
p204
I2
I0
ttRp205
(dp206
g8
g14
sg10
g203
sg11
g204
sg12
I2
sg13
I0
sg9
I102
sbag2
(g3
g4
(I103
V52
p207
V\u041d\u0435\u043f\u043e\u043b\u043d\u043e\u0435 \u0437\u0430\u043f\u043e\u043b\u043d\u0435\u043d\u0438\u0435 \u043f\u043e\u043b\u0435\u0439 \u0440\u0435\u0435\u0441\u0442\u0440\u0430 \u0441\u0447\u0435\u0442\u043e\u0432
p208
I2
I0
ttRp209
(dp210
g8
g14
sg10
g207
sg11
g208
sg12
I2
sg13
I0
sg9
I103
sbag2
(g3
g4
(I104
V53
p211
V\u041d\u0435\u043a\u043e\u0440\u0440\u0435\u043a\u0442\u043d\u043e\u0435 \u0437\u0430\u043f\u043e\u043b\u043d\u0435\u043d\u0438\u0435 \u043f\u043e\u043b\u0435\u0439 \u0440\u0435\u0435\u0441\u0442\u0440\u0430 \u0441\u0447\u0435\u0442\u043e\u0432
p212
I2
I0
ttRp213
(dp214
g8
g14
sg10
g211
sg11
g212
sg12
I2
sg13
I0
sg9
I104
sbag2
(g3
g4
(I105
V54
p215
V\u0417\u0430\u044f\u0432\u043b\u0435\u043d\u043d\u0430\u044f \u0441\u0443\u043c\u043c\u0430 \u043f\u043e \u043f\u043e\u0437\u0438\u0446\u0438\u0438 \u0440\u0435\u0435\u0441\u0442\u0440\u0430 \u0441\u0447\u0435\u0442\u043e\u0432 \u043d\u0435 \u043a\u043e\u0440\u0440\u0435\u043a\u0442\u043d\u0430
p216
I2
I0
ttRp217
(dp218
g8
g14
sg10
g215
sg11
g216
sg12
I2
sg13
I0
sg9
I105
sbag2
(g3
g4
(I106
V55
p219
V\u0414\u0430\u0442\u0430 \u043e\u043a\u0430\u0437\u0430\u043d\u0438\u044f \u041c\u041f \u0432 \u0440\u0435\u0435\u0441\u0442\u0440\u0435 \u0441\u0447\u0435\u0442\u043e\u0432 \u043d\u0435 \u0441\u043e\u043e\u0442\u0432\u0435\u0442\u0441\u0442\u0432\u0443\u0435\u0442 \u043e\u0442\u0447\u0435\u0442\u043d\u043e\u043c\u0443 \u043f\u0435\u0440\u0438\u043e\u0434\u0443/\u043f\u0435\u0440\u0438\u043e\u0434\u0443 \u043e\u043f\u043b\u0430\u0442\u044b
p220
I2
I0
ttRp221
(dp222
g8
g14
sg10
g219
sg11
g220
sg12
I2
sg13
I0
sg9
I106
sbag2
(g3
g4
(I107
V56
p223
V\u041e\u043a\u0430\u0437\u0430\u043d\u0438\u0435 \u041c\u041f \u043b\u0438\u0446\u0443, \u0437\u0430\u0441\u0442\u0440\u0430\u0445\u043e\u0432\u0430\u043d\u043d\u043e\u043c\u0443 \u0434\u0440\u0443\u0433\u043e\u0439 \u0421\u041c\u041e
p224
I2
I0
ttRp225
(dp226
g8
g14
sg10
g223
sg11
g224
sg12
I2
sg13
I0
sg9
I107
sbag2
(g3
g4
(I108
V57
p227
V\u041e\u0448\u0438\u0431\u043a\u0438 \u0432 \u043f\u0435\u0440\u0441\u043e\u043d\u0430\u043b\u044c\u043d\u044b\u0445 \u0434\u0430\u043d\u043d\u044b\u0445 \u0417\u041b, \u043f\u0440\u0438\u0432\u043e\u0434\u044f\u0449\u0438\u0435 \u043a \u043d\u0435\u0432\u043e\u0437\u043c\u043e\u0436\u043d\u043e\u0441\u0442\u0438 \u0435\u0433\u043e \u0438\u0434\u0435\u043d\u0442\u0438\u0444\u0438\u043a\u0430\u0446\u0438\u0438
p228
I2
I0
ttRp229
(dp230
g8
g14
sg10
g227
sg11
g228
sg12
I2
sg13
I0
sg9
I108
sbag2
(g3
g4
(I109
V58
p231
V\u041e\u043a\u0430\u0437\u0430\u043d\u0438\u0435 \u041c\u041f \u0417\u041b, \u043f\u043e\u043b\u0443\u0447\u0438\u0432\u0448\u0435\u043c\u0443 \u043f\u043e\u043b\u0438\u0441 \u041e\u041c\u0421 \u043d\u0430 \u0442\u0435\u0440\u0440\u0438\u0442\u043e\u0440\u0438\u0438 \u0434\u0440\u0443\u0433\u043e\u0433\u043e \u0441\u0443\u0431\u044a\u0435\u043a\u0442\u0430 \u0420\u0424
p232
I2
I0
ttRp233
(dp234
g8
g14
sg10
g231
sg11
g232
sg12
I2
sg13
I0
sg9
I109
sbag2
(g3
g4
(I110
V59
p235
V\u041d\u0430\u043b\u0438\u0447\u0438\u0435 \u0432 \u0440\u0435\u0435\u0441\u0442\u0440\u0435 \u0441\u0447\u0435\u0442\u0430 \u043d\u0435\u0430\u043a\u0442\u0443\u0430\u043b\u044c\u043d\u044b\u0445 \u0434\u0430\u043d\u043d\u044b\u0445 \u043e \u0417\u041b
p236
I2
I0
ttRp237
(dp238
g8
g14
sg10
g235
sg11
g236
sg12
I2
sg13
I0
sg9
I110
sbag2
(g3
g4
(I111
V60
p239
V\u041f\u0440\u0435\u0434\u043e\u0441\u0442\u0430\u0432\u043b\u0435\u043d\u0438\u0435 \u041c\u041f \u0433\u0440\u0430\u0436\u0434\u0430\u043d\u0430\u043c, \u043d\u0435 \u043f\u043e\u0434\u043b\u0435\u0436\u0430\u0449\u0438\u043c \u0441\u0442\u0440\u0430\u0445\u043e\u0432\u0430\u043d\u0438\u044e \u043f\u043e \u041e\u041c\u0421 \u043d\u0430 \u0442\u0435\u0440\u0440\u0438\u0442\u043e\u0440\u0438\u0438 \u0420\u0424
p240
I2
I0
ttRp241
(dp242
g8
g14
sg10
g239
sg11
g240
sg12
I2
sg13
I0
sg9
I111
sbag2
(g3
g4
(I112
V61
p243
V\u0412\u043a\u043b\u044e\u0447\u0435\u043d\u0438\u0435 \u0432 \u0440\u0435\u0435\u0441\u0442\u0440 \u0441\u0447\u0435\u0442\u043e\u0432 \u0432\u0438\u0434\u043e\u0432 \u041c\u041f, \u043d\u0435 \u0432\u0445\u043e\u0434\u044f\u0449\u0438\u0445 \u0432 \u0442\u0435\u0440\u0440. \u043f\u0440\u043e\u0433\u0440\u0430\u043c\u043c\u0443 \u041e\u041c\u0421
p244
I2
I0
ttRp245
(dp246
g8
g14
sg10
g243
sg11
g244
sg12
I2
sg13
I0
sg9
I112
sbag2
(g3
g4
(I113
V62
p247
V\u0412\u043a\u043b\u044e\u0447\u0435\u043d\u0438\u0435 \u0432 \u0440\u0435\u0435\u0441\u0442\u0440 \u041c\u041f \u0441\u0432\u0435\u0440\u0445 \u0442\u0435\u0440\u0440. \u043f\u0440\u043e\u0433\u0440\u0430\u043c\u043c\u044b \u041e\u041c\u0421
p248
I2
I0
ttRp249
(dp250
g8
g14
sg10
g247
sg11
g248
sg12
I2
sg13
I0
sg9
I113
sbag2
(g3
g4
(I114
V63
p251
V\u0412\u043a\u043b\u044e\u0447\u0435\u043d\u0438\u0435 \u0432 \u0440\u0435\u0435\u0441\u0442\u0440 \u0441\u0447\u0435\u0442\u043e\u0432 \u0441\u043b\u0443\u0447\u0430\u0435\u0432, \u043d\u0435 \u0432\u0445\u043e\u0434\u044f\u0449\u0438\u0445 \u0432 \u0442\u0435\u0440\u0440. \u043f\u0440\u043e\u0433\u0440\u0430\u043c\u043c\u0443 \u041e\u041c\u0421
p252
I2
I0
ttRp253
(dp254
g8
g14
sg10
g251
sg11
g252
sg12
I2
sg13
I0
sg9
I114
sbag2
(g3
g4
(I115
V64
p255
V\u041e\u0442\u0441\u0443\u0442\u0441\u0442\u0432\u0438\u0435 \u0442\u0430\u0440\u0438\u0444\u0430
p256
I2
I0
ttRp257
(dp258
g8
g14
sg10
g255
sg11
g256
sg12
I2
sg13
I0
sg9
I115
sbag2
(g3
g4
(I116
V65
p259
V\u041d\u0435\u0441\u043e\u043e\u0442\u0432\u0435\u0442\u0441\u0442\u0432\u0438\u0435 \u0442\u0430\u0440\u0438\u0444\u0430
p260
I2
I0
ttRp261
(dp262
g8
g14
sg10
g259
sg11
g260
sg12
I2
sg13
I0
sg9
I116
sbag2
(g3
g4
(I117
V66
p263
V\u041d\u0435\u043b\u0438\u0446\u0435\u043d\u0437\u0438\u0440\u043e\u0432\u0430\u043d\u043d\u0430\u044f \u041c\u041f(\u043e\u0442\u0441\u0443\u0442\u0441\u0442\u0432\u0438\u0435 \u043b\u0438\u0446\u0435\u043d\u0437\u0438\u0438)
p264
I2
I0
ttRp265
(dp266
g8
g14
sg10
g263
sg11
g264
sg12
I2
sg13
I0
sg9
I117
sbag2
(g3
g4
(I118
V67
p267
V\u041d\u0435\u043b\u0438\u0446\u0435\u043d\u0437\u0438\u0440\u043e\u0432\u0430\u043d\u043d\u0430\u044f \u041c\u041f(\u043e\u043a\u043e\u043d\u0447\u0430\u043d\u0438\u0435 \u043b\u0438\u0446\u0435\u043d\u0437\u0438\u0438)
p268
I2
I0
ttRp269
(dp270
g8
g14
sg10
g267
sg11
g268
sg12
I2
sg13
I0
sg9
I118
sbag2
(g3
g4
(I119
V68
p271
V\u041d\u0435\u043b\u0438\u0446\u0435\u043d\u0437\u0438\u0440\u043e\u0432\u0430\u043d\u043d\u0430\u044f \u041c\u041f(\u043d\u0430\u0440\u0443\u0448\u0435\u043d\u0438\u0435 \u0443\u0441\u043b\u043e\u0432\u0438\u0439)
p272
I2
I0
ttRp273
(dp274
g8
g14
sg10
g271
sg11
g272
sg12
I2
sg13
I0
sg9
I119
sbag2
(g3
g4
(I120
V69
p275
V\u041d\u0435\u043f\u0440\u043e\u0444\u0438\u043b\u044c\u043d\u043e\u0435 \u043e\u043a\u0430\u0437\u0430\u043d\u0438\u0435 \u041c\u041f
p276
I2
I0
ttRp277
(dp278
g8
g14
sg10
g275
sg11
g276
sg12
I2
sg13
I0
sg9
I120
sbag2
(g3
g4
(I121
V70
p279
V\u041f\u043e\u0432\u0442\u043e\u0440\u043d\u043e\u0435 \u0432\u044b\u0441\u0442\u0430\u0432\u043b\u0435\u043d\u0438\u0435 \u0441\u0447\u0435\u0442\u0430 \u0437\u0430 \u0443\u0436\u0435 \u043e\u043f\u043b\u0430\u0447\u0435\u043d\u043d\u0443\u044e \u041c\u041f
p280
I2
I0
ttRp281
(dp282
g8
g14
sg10
g279
sg11
g280
sg12
I2
sg13
I0
sg9
I121
sbag2
(g3
g4
(I122
V71
p283
V\u0414\u0443\u0431\u043b\u0438\u0440\u043e\u0432\u0430\u043d\u0438\u0435 \u0441\u043b\u0443\u0447\u0430\u0435\u0432 \u043e\u043a\u0430\u0437\u0430\u043d\u0438\u044f \u041c\u041f \u0432 \u043e\u0434\u043d\u043e\u043c \u0440\u0435\u0435\u0441\u0442\u0440\u0435
p284
I2
I0
ttRp285
(dp286
g8
g14
sg10
g283
sg11
g284
sg12
I2
sg13
I0
sg9
I122
sbag2
(g3
g4
(I123
V72
p287
V\u041f\u043e\u0432\u0442\u043e\u0440\u043d\u043e\u0435 \u0432\u043a\u043b\u044e\u0447\u0435\u043d\u0438\u0435 \u0443\u0441\u043b\u0443\u0433\u0438, \u0443\u0447\u0442\u0435\u043d\u043d\u043e\u0439 \u0432 \u0434\u0440\u0443\u0433\u043e\u0439 \u0443\u0441\u043b\u0443\u0433\u0435
p288
I2
I0
ttRp289
(dp290
g8
g14
sg10
g287
sg11
g288
sg12
I2
sg13
I0
sg9
I123
sbag2
(g3
g4
(I124
V73
p291
V\u041f\u043e\u0432\u0442\u043e\u0440\u043d\u043e\u0435 \u0432\u043a\u043b\u044e\u0447\u0435\u043d\u0438\u0435 \u0443\u0441\u043b\u0443\u0433\u0438, \u0443\u0447\u0442\u0435\u043d\u043d\u043e\u0439 \u0432 \u043d\u043e\u0440\u043c\u0430\u0442\u0438\u0432\u0435 \u0444\u0438\u043d\u0430\u043d\u0441\u0438\u0440\u043e\u0432\u0430\u043d\u0438\u044f
p292
I2
I0
ttRp293
(dp294
g8
g14
sg10
g291
sg11
g292
sg12
I2
sg13
I0
sg9
I124
sbag2
(g3
g4
(I125
V74
p295
V\u041f\u0435\u0440\u0435\u0441\u0435\u0447\u0435\u043d\u0438\u0435 \u0441\u0440\u043e\u043a\u043e\u0432 \u043b\u0435\u0447\u0435\u043d\u0438\u044f
p296
I2
I0
ttRp297
(dp298
g8
g14
sg10
g295
sg11
g296
sg12
I2
sg13
I0
sg9
I125
sbag2
(g3
g4
(I126
V75
p299
V\u041f\u043e\u0432\u0442\u043e\u0440\u043d\u043e\u0435 \u0432\u043a\u043b\u044e\u0447\u0435\u043d\u0438\u0435 \u0432 \u043e\u0434\u0438\u043d \u043f\u0435\u0440\u0438\u043e\u0434 \u043d\u0435\u0441\u043a\u043e\u043b\u044c\u043a\u0438\u0445 \u0441\u0442\u0430\u0446\u0438\u043e\u043d\u0430\u0440\u043d\u044b\u0445 \u043f\u0440\u0435\u0431\u044b\u0432\u0430\u043d\u0438\u0439
p300
I2
I0
ttRp301
(dp302
g8
g14
sg10
g299
sg11
g300
sg12
I2
sg13
I0
sg9
I126
sba.