(lp1
ccopy_reg
_reconstructor
p2
(csqlalchemy.util._collections
KeyedTuple
p3
c__builtin__
tuple
p4
(L1L
VPERS_LIST
p5
VPERS_LIST
p6
ttRp7
(dp8
S'_labels'
p9
(S'id'
p10
S'code'
p11
S'name'
p12
tp13
sg11
g5
sg10
L1L
sg12
g6
sbag2
(g3
g4
(L2L
VZGLV
p14
V\u0417\u0430\u0433\u043e\u043b\u043e\u0432\u043e\u043a \u0444\u0430\u0439\u043b\u0430
p15
ttRp16
(dp17
g9
g13
sg11
g14
sg10
L2L
sg12
g15
sbag2
(g3
g4
(L3L
VVERSION
p18
V\u0412\u0435\u0440\u0441\u0438\u044f \u0432\u0437\u0430\u0438\u043c\u043e\u0434\u0435\u0439\u0441\u0442\u0432\u0438\u044f
p19
ttRp20
(dp21
g9
g13
sg11
g18
sg10
L3L
sg12
g19
sbag2
(g3
g4
(L4L
VDATA
p22
V\u0414\u0430\u0442\u0430
p23
ttRp24
(dp25
g9
g13
sg11
g22
sg10
L4L
sg12
g23
sbag2
(g3
g4
(L5L
VFILENAME
p26
V\u0418\u043c\u044f \u0444\u0430\u0439\u043b\u0430
p27
ttRp28
(dp29
g9
g13
sg11
g26
sg10
L5L
sg12
g27
sbag2
(g3
g4
(L6L
VFILENAME1
p30
V\u0418\u043c\u044f \u043e\u0441\u043d\u043e\u0432\u043d\u043e\u0433\u043e \u0444\u0430\u0439\u043b\u0430
p31
ttRp32
(dp33
g9
g13
sg11
g30
sg10
L6L
sg12
g31
sbag2
(g3
g4
(L7L
VPERS
p34
V\u0414\u0430\u043d\u043d\u044b\u0435
p35
ttRp36
(dp37
g9
g13
sg11
g34
sg10
L7L
sg12
g35
sbag2
(g3
g4
(L8L
VFAM
p38
V\u0424\u0430\u043c\u0438\u043b\u0438\u044f \u043f\u0430\u0446\u0438\u0435\u043d\u0442\u0430
p39
ttRp40
(dp41
g9
g13
sg11
g38
sg10
L8L
sg12
g39
sbag2
(g3
g4
(L9L
VIM
p42
V\u0418\u043c\u044f \u043f\u0430\u0446\u0438\u0435\u043d\u0442\u0430
p43
ttRp44
(dp45
g9
g13
sg11
g42
sg10
L9L
sg12
g43
sbag2
(g3
g4
(L10L
VOT
p46
V\u041e\u0442\u0447\u0435\u0441\u0442\u0432\u043e \u043f\u0430\u0446\u0438\u0435\u043d\u0442\u0430
p47
ttRp48
(dp49
g9
g13
sg11
g46
sg10
L10L
sg12
g47
sbag2
(g3
g4
(L11L
VW
V\u041f\u043e\u043b \u043f\u0430\u0446\u0438\u0435\u043d\u0442\u0430
p50
ttRp51
(dp52
g9
g13
sg11
VW
sg10
L11L
sg12
g50
sbag2
(g3
g4
(L12L
VDR
p53
V\u0414\u0430\u0442\u0430 \u0440\u043e\u0436\u0434\u0435\u043d\u0438\u044f \u043f\u0430\u0446\u0438\u0435\u043d\u0442\u0430
p54
ttRp55
(dp56
g9
g13
sg11
g53
sg10
L12L
sg12
g54
sbag2
(g3
g4
(L13L
VFAM_P
p57
V\u0424\u0430\u043c\u0438\u043b\u0438\u044f \u043f\u0440\u0435\u0434\u0441\u0442\u0430\u0432\u0438\u0442\u0435\u043b\u044f \u043f\u0430\u0446\u0438\u0435\u043d\u0442\u0430
p58
ttRp59
(dp60
g9
g13
sg11
g57
sg10
L13L
sg12
g58
sbag2
(g3
g4
(L14L
VIM_P
p61
V\u0418\u043c\u044f \u043f\u0440\u0435\u0434\u0441\u0442\u0430\u0432\u0438\u0442\u0435\u043b\u044f \u043f\u0430\u0446\u0438\u0435\u043d\u0442\u0430
p62
ttRp63
(dp64
g9
g13
sg11
g61
sg10
L14L
sg12
g62
sbag2
(g3
g4
(L15L
VOT_P
p65
V\u041e\u0442\u0447\u0435\u0441\u0442\u0432\u043e \u043f\u0440\u0435\u0434\u0441\u0442\u0430\u0432\u0438\u0442\u0435\u043b\u044f \u043f\u0430\u0446\u0438\u0435\u043d\u0442\u0430
p66
ttRp67
(dp68
g9
g13
sg11
g65
sg10
L15L
sg12
g66
sbag2
(g3
g4
(L16L
VW_P
p69
V\u041f\u043e\u043b \u043f\u0440\u0435\u0434\u0441\u0442\u0430\u0432\u0438\u0442\u0435\u043b\u044f \u043f\u0430\u0446\u0438\u0435\u043d\u0442\u0430
p70
ttRp71
(dp72
g9
g13
sg11
g69
sg10
L16L
sg12
g70
sbag2
(g3
g4
(L17L
VDR_P
p73
V\u0414\u0430\u0442\u0430 \u0440\u043e\u0436\u0434\u0435\u043d\u0438\u044f \u043f\u0440\u0435\u0434\u0441\u0442\u0430\u0432\u0438\u0442\u0435\u043b\u044f \u043f\u0430\u0446\u0438\u0435\u043d\u0442\u0430
p74
ttRp75
(dp76
g9
g13
sg11
g73
sg10
L17L
sg12
g74
sbag2
(g3
g4
(L18L
VMR
p77
V\u041c\u0435\u0441\u0442\u043e \u0440\u043e\u0436\u0434\u0435\u043d\u0438\u044f \u043f\u0440\u0435\u0434\u0441\u0442\u0430\u0432\u0438\u0442\u0435\u043b\u044f \u0438\u043b\u0438 \u043f\u0430\u0446\u0438\u0435\u043d\u0442\u0430
p78
ttRp79
(dp80
g9
g13
sg11
g77
sg10
L18L
sg12
g78
sbag2
(g3
g4
(L19L
VDOCTYPE
p81
V\u0422\u0438\u043f \u0434\u043e\u043a\u0443\u043c\u0435\u043d\u0442\u0430, \u0443\u0434\u043e\u0441\u0442\u043e\u0432\u0435\u0440\u044f\u044e\u0449\u0435\u0433\u043e \u043b\u0438\u0447\u043d\u043e\u0441\u0442\u044c \u043f\u0430\u0446\u0438\u0435\u043d\u0442\u0430 \u0438\u043b\u0438 \u043f\u0440\u0435\u0434\u0441\u0442\u0430\u0432\u0438\u0442\u0435\u043b\u044f
p82
ttRp83
(dp84
g9
g13
sg11
g81
sg10
L19L
sg12
g82
sbag2
(g3
g4
(L20L
VDOCSER
p85
V\u0421\u0435\u0440\u0438\u044f \u0434\u043e\u043a\u0443\u043c\u0435\u043d\u0442\u0430, \u0443\u0434\u043e\u0441\u0442\u043e\u0432\u0435\u0440\u044f\u044e\u0449\u0435\u0433\u043e \u043b\u0438\u0447\u043d\u043e\u0441\u0442\u044c \u043f\u0430\u0446\u0438\u0435\u043d\u0442\u0430 \u0438\u043b\u0438 \u043f\u0440\u0435\u0434\u0441\u0442\u0430\u0432\u0438\u0442\u0435\u043b\u044f
p86
ttRp87
(dp88
g9
g13
sg11
g85
sg10
L20L
sg12
g86
sbag2
(g3
g4
(L21L
VDOCNUM
p89
V\u041d\u043e\u043c\u0435\u0440 \u0434\u043e\u043a\u0443\u043c\u0435\u043d\u0442\u0430, \u0443\u0434\u043e\u0441\u0442\u043e\u0432\u0435\u0440\u044f\u044e\u0449\u0435\u0433\u043e \u043b\u0438\u0447\u043d\u043e\u0441\u0442\u044c \u043f\u0430\u0446\u0438\u0435\u043d\u0442\u0430 \u0438\u043b\u0438 \u043f\u0440\u0435\u0434\u0441\u0442\u0430\u0432\u0438\u0442\u0435\u043b\u044f
p90
ttRp91
(dp92
g9
g13
sg11
g89
sg10
L21L
sg12
g90
sbag2
(g3
g4
(L22L
VSNILS
p93
V\u0421\u041d\u0418\u041b\u0421
p94
ttRp95
(dp96
g9
g13
sg11
g93
sg10
L22L
sg12
g94
sbag2
(g3
g4
(L23L
VOKATOP
p97
V\u041a\u043e\u0434 \u043c\u0435\u0441\u0442\u0430 \u043f\u0440\u0435\u0431\u044b\u0432\u0430\u043d\u0438\u044f \u043f\u043e \u041e\u041a\u0410\u0422\u041e
p98
ttRp99
(dp100
g9
g13
sg11
g97
sg10
L23L
sg12
g98
sbag2
(g3
g4
(L24L
VCOMENTP
p101
V\u0421\u043b\u0443\u0436\u0435\u0431\u043d\u043e\u0435 \u043f\u043e\u043b\u0435
p102
ttRp103
(dp104
g9
g13
sg11
g101
sg10
L24L
sg12
g102
sbag2
(g3
g4
(L25L
VID_PAC
p105
V\u041a\u043e\u0434 \u0437\u0430\u043f\u0438\u0441\u0438 \u043e \u043f\u0430\u0446\u0438\u0435\u043d\u0442\u0435
p106
ttRp107
(dp108
g9
g13
sg11
g105
sg10
L25L
sg12
g106
sbag2
(g3
g4
(L26L
VOKATOG
p109
V\u041a\u043e\u0434 \u043c\u0435\u0441\u0442\u0430 \u0436\u0438\u0442\u0435\u043b\u044c\u0441\u0442\u0432\u0430 \u043f\u043e \u041e\u041a\u0410\u0422\u041e
p110
ttRp111
(dp112
g9
g13
sg11
g109
sg10
L26L
sg12
g110
sbag2
(g3
g4
(L27L
VZL_LIST
p113
VZL_LIST
p114
ttRp115
(dp116
g9
g13
sg11
g113
sg10
L27L
sg12
g114
sbag2
(g3
g4
(L28L
VZGL
p117
V\u0417\u0430\u0433\u043e\u043b\u043e\u0432\u043e\u043a \u0444\u0430\u0439\u043b\u0430
p118
ttRp119
(dp120
g9
g13
sg11
g117
sg10
L28L
sg12
g118
sbag2
(g3
g4
(L29L
VSCHET
p121
V\u0421\u0447\u0435\u0442
p122
ttRp123
(dp124
g9
g13
sg11
g121
sg10
L29L
sg12
g122
sbag2
(g3
g4
(L30L
VCODE
p125
V\u041a\u043e\u0434 \u0437\u0430\u043f\u0438\u0441\u0438 \u0441\u0447\u0435\u0442\u0430
p126
ttRp127
(dp128
g9
g13
sg11
g125
sg10
L30L
sg12
g126
sbag2
(g3
g4
(L31L
VCODE_MO
p129
V\u0420\u0435\u0435\u0441\u0442\u0440\u043e\u0432\u044b\u0439 \u043d\u043e\u043c\u0435\u0440 \u043c\u0435\u0434\u0438\u0446\u0438\u043d\u0441\u043a\u043e\u0439 \u043e\u0440\u0433\u0430\u043d\u0438\u0437\u0430\u0446\u0438\u0438
p130
ttRp131
(dp132
g9
g13
sg11
g129
sg10
L31L
sg12
g130
sbag2
(g3
g4
(L32L
VYEAR
p133
V\u041e\u0442\u0447\u0435\u0442\u043d\u044b\u0439 \u0433\u043e\u0434
p134
ttRp135
(dp136
g9
g13
sg11
g133
sg10
L32L
sg12
g134
sbag2
(g3
g4
(L33L
VMONTH
p137
V\u041e\u0442\u0447\u0435\u0442\u043d\u044b\u0439 \u043c\u0435\u0441\u044f\u0446
p138
ttRp139
(dp140
g9
g13
sg11
g137
sg10
L33L
sg12
g138
sbag2
(g3
g4
(L34L
VNSCHET
p141
V\u041d\u043e\u043c\u0435\u0440 \u0441\u0447\u0435\u0442\u0430
p142
ttRp143
(dp144
g9
g13
sg11
g141
sg10
L34L
sg12
g142
sbag2
(g3
g4
(L35L
VDSCHET
p145
V\u0414\u0430\u0442\u0430 \u0432\u044b\u0441\u0442\u0430\u0432\u043b\u0435\u043d\u0438\u044f \u0441\u0447\u0435\u0442\u0430
p146
ttRp147
(dp148
g9
g13
sg11
g145
sg10
L35L
sg12
g146
sbag2
(g3
g4
(L36L
VPLAT
p149
V\u041f\u043b\u0430\u0442\u0435\u043b\u044c\u0449\u0438\u043a, \u0420\u0435\u0435\u0441\u0442\u0440\u043e\u0432\u044b\u0439 \u043d\u043e\u043c\u0435\u0440 \u0421\u041c\u041e
p150
ttRp151
(dp152
g9
g13
sg11
g149
sg10
L36L
sg12
g150
sbag2
(g3
g4
(L37L
VSUMMAV
p153
V\u0421\u0443\u043c\u043c\u0430 \u041c\u041e, \u0432\u044b\u0441\u0442\u0430\u0432\u043b\u0435\u043d\u043d\u0430\u044f \u043d\u0430 \u043e\u043f\u043b\u0430\u0442\u0443
p154
ttRp155
(dp156
g9
g13
sg11
g153
sg10
L37L
sg12
g154
sbag2
(g3
g4
(L38L
VCOMENTS
p157
V\u0421\u043b\u0443\u0436\u0435\u0431\u043d\u043e\u0435 \u043f\u043e\u043b\u0435 \u043a \u0441\u0447\u0435\u0442\u0443
p158
ttRp159
(dp160
g9
g13
sg11
g157
sg10
L38L
sg12
g158
sbag2
(g3
g4
(L39L
VSUMMAP
p161
V\u0421\u0443\u043c\u043c\u0430, \u043f\u0440\u0438\u043d\u044f\u0442\u0430\u044f \u043a \u043e\u043f\u043b\u0430\u0442\u0430 \u0421\u041c\u041e(\u0422\u0424\u041e\u041c\u0421)
p162
ttRp163
(dp164
g9
g13
sg11
g161
sg10
L39L
sg12
g162
sbag2
(g3
g4
(L40L
VSANK_MEK
p165
V\u0424\u0438\u043d\u0430\u043d\u0441\u043e\u0432\u044b\u0435 \u0441\u0430\u043d\u043a\u0446\u0438\u0438 (\u041c\u042d\u041a)
p166
ttRp167
(dp168
g9
g13
sg11
g165
sg10
L40L
sg12
g166
sbag2
(g3
g4
(L41L
VSANK_MEE
p169
V\u0424\u0438\u043d\u0430\u043d\u0441\u043e\u0432\u044b\u0435 \u0441\u0430\u043d\u043a\u0446\u0438\u0438 (\u041c\u042d\u042d)
p170
ttRp171
(dp172
g9
g13
sg11
g169
sg10
L41L
sg12
g170
sbag2
(g3
g4
(L42L
VSANK_EKMP
p173
V\u0424\u0438\u043d\u0430\u043d\u0441\u043e\u0432\u044b\u0435 \u0441\u0430\u043d\u043a\u0446\u0438\u0438 (\u042d\u041a\u041c\u041f)
p174
ttRp175
(dp176
g9
g13
sg11
g173
sg10
L42L
sg12
g174
sbag2
(g3
g4
(L43L
VZAP
p177
V\u0417\u0430\u043f\u0438\u0441\u0438
p178
ttRp179
(dp180
g9
g13
sg11
g177
sg10
L43L
sg12
g178
sbag2
(g3
g4
(L44L
VN_ZAP
p181
V\u041d\u043e\u043c\u0435\u0440 \u043f\u043e\u0437\u0438\u0446\u0438\u0438 \u0437\u0430\u043f\u0438\u0441\u0438
p182
ttRp183
(dp184
g9
g13
sg11
g181
sg10
L44L
sg12
g182
sbag2
(g3
g4
(L45L
VPR_NOV
p185
V\u041f\u0440\u0438\u0437\u043d\u0430\u043a \u0438\u0441\u043f\u0440\u0430\u0432\u043b\u0435\u043d\u043d\u043e\u0439 \u0437\u0430\u043f\u0438\u0441\u0438
p186
ttRp187
(dp188
g9
g13
sg11
g185
sg10
L45L
sg12
g186
sbag2
(g3
g4
(L46L
VPACIENT
p189
V\u0421\u0432\u0435\u0434\u0435\u043d\u0438\u044f \u043e \u043f\u0430\u0446\u0438\u0435\u043d\u0442\u0435
p190
ttRp191
(dp192
g9
g13
sg11
g189
sg10
L46L
sg12
g190
sbag2
(g3
g4
(L47L
VVPOLIS
p193
V\u0422\u0438\u043f \u0434\u043e\u043a\u0443\u043c\u0435\u043d\u0442\u0430, \u043f\u043e\u0434\u0442\u0432\u0435\u0440\u0436\u0434\u0430\u044e\u0449\u0435\u0433\u043e \u0444\u0430\u043a\u0442 \u0441\u0442\u0440\u0430\u0445\u043e\u0432\u0430\u043d\u0438\u044f \u043f\u043e \u041e\u041c\u0421
p194
ttRp195
(dp196
g9
g13
sg11
g193
sg10
L47L
sg12
g194
sbag2
(g3
g4
(L48L
VSPOLIS
p197
V\u0421\u0435\u0440\u0438\u044f \u0434\u043e\u043a\u0443\u043c\u0435\u043d\u0442\u0430, \u043f\u043e\u0434\u0442\u0432\u0435\u0440\u0436\u0434\u0430\u044e\u0449\u0435\u0433\u043e \u0444\u0430\u043a\u0442 \u0441\u0442\u0440\u0430\u0445\u043e\u0432\u0430\u043d\u0438\u044f \u043f\u043e \u041e\u041c\u0421
p198
ttRp199
(dp200
g9
g13
sg11
g197
sg10
L48L
sg12
g198
sbag2
(g3
g4
(L49L
VNPOLIS
p201
V\u041d\u043e\u043c\u0435\u0440 \u0434\u043e\u043a\u0443\u043c\u0435\u043d\u0442\u0430, \u043f\u043e\u0434\u0442\u0432\u0435\u0440\u0436\u0434\u0430\u044e\u0449\u0435\u0433\u043e \u0444\u0430\u043a\u0442 \u0441\u0442\u0440\u0430\u0445\u043e\u0432\u0430\u043d\u0438\u044f \u043f\u043e \u041e\u041c\u0421
p202
ttRp203
(dp204
g9
g13
sg11
g201
sg10
L49L
sg12
g202
sbag2
(g3
g4
(L50L
VSMO
p205
V\u0420\u0435\u0435\u0441\u0442\u0440\u043e\u0432\u044b\u0439 \u043d\u043e\u043c\u0435\u0440 \u0421\u041c\u041e
p206
ttRp207
(dp208
g9
g13
sg11
g205
sg10
L50L
sg12
g206
sbag2
(g3
g4
(L51L
VSMO_OGRN
p209
V\u041e\u0413\u0420\u041d \u0421\u041c\u041e
p210
ttRp211
(dp212
g9
g13
sg11
g209
sg10
L51L
sg12
g210
sbag2
(g3
g4
(L52L
VSMO_OK
p213
V\u041e\u041a\u0410\u0422\u041e \u0442\u0435\u0440\u0440\u0438\u0442\u043e\u0440\u0438\u0438 \u0441\u0442\u0440\u0430\u0445\u043e\u0432\u0430\u043d\u0438\u044f
p214
ttRp215
(dp216
g9
g13
sg11
g213
sg10
L52L
sg12
g214
sbag2
(g3
g4
(L53L
VSMO_NAM
p217
V\u041d\u0430\u0438\u043c\u0435\u043d\u043e\u0432\u0430\u043d\u0438\u0435 \u0421\u041c\u041e
p218
ttRp219
(dp220
g9
g13
sg11
g217
sg10
L53L
sg12
g218
sbag2
(g3
g4
(L54L
VNOVOR
p221
V\u041f\u0440\u0438\u0437\u043d\u0430\u043a \u043d\u043e\u0432\u043e\u0440\u043e\u0436\u0434\u0435\u043d\u043d\u043e\u0433\u043e
p222
ttRp223
(dp224
g9
g13
sg11
g221
sg10
L54L
sg12
g222
sbag2
(g3
g4
(L55L
VSLUCH
p225
V\u0421\u0432\u0435\u0434\u0435\u043d\u0438\u044f \u043e \u0441\u043b\u0443\u0447\u0430\u0435
p226
ttRp227
(dp228
g9
g13
sg11
g225
sg10
L55L
sg12
g226
sbag2
(g3
g4
(L56L
VIDCASE
p229
V\u041d\u043e\u043c\u0435\u0440 \u0437\u0430\u043f\u0438\u0441\u0438 \u0432 \u0440\u0435\u0435\u0441\u0442\u0440\u0435 \u0441\u043b\u0443\u0447\u0430\u0435\u0432
p230
ttRp231
(dp232
g9
g13
sg11
g229
sg10
L56L
sg12
g230
sbag2
(g3
g4
(L57L
VUSL_OK
p233
V\u0423\u0441\u043b\u043e\u0432\u0438\u044f \u043e\u043a\u0430\u0437\u0430\u043d\u0438\u044f \u043c\u0435\u0434\u0438\u0446\u0438\u043d\u0441\u043a\u043e\u0439 \u043f\u043e\u043c\u043e\u0449\u0438
p234
ttRp235
(dp236
g9
g13
sg11
g233
sg10
L57L
sg12
g234
sbag2
(g3
g4
(L58L
VVIDPOM
p237
V\u0412\u0438\u0434 \u043f\u043e\u043c\u043e\u0449\u0438
p238
ttRp239
(dp240
g9
g13
sg11
g237
sg10
L58L
sg12
g238
sbag2
(g3
g4
(L59L
VNPR_MO
p241
V\u041a\u043e\u0434 \u041c\u041e, \u043d\u0430\u043f\u0440\u0430\u0432\u0438\u0432\u0448\u0438\u0433\u043e \u043d\u0430 \u043b\u0435\u0447\u0435\u043d\u0438\u0435 (\u0433\u043e\u0441\u043f\u0438\u0442\u0430\u043b\u0438\u0437\u0430\u0446\u0438\u044e, \u0434\u0438\u0430\u0433\u043d\u043e\u0441\u0442\u0438\u043a\u0443, \u043a\u043e\u043d\u0441\u0443\u043b\u044c\u0442\u0430\u0446\u0438\u044e)
p242
ttRp243
(dp244
g9
g13
sg11
g241
sg10
L59L
sg12
g242
sbag2
(g3
g4
(L60L
VEXTR
p245
V\u041d\u0430\u043f\u0440\u0430\u0432\u043b\u0435\u043d\u0438\u0435 (\u0433\u043e\u0441\u043f\u0438\u0442\u0430\u043b\u0438\u0437\u0430\u0446\u0438\u044f)
p246
ttRp247
(dp248
g9
g13
sg11
g245
sg10
L60L
sg12
g246
sbag2
(g3
g4
(L61L
VLPU
p249
V\u041a\u043e\u0434 \u041c\u041e
p250
ttRp251
(dp252
g9
g13
sg11
g249
sg10
L61L
sg12
g250
sbag2
(g3
g4
(L62L
VLPU_1
p253
V\u041f\u043e\u0434\u0440\u0430\u0437\u0434\u0435\u043b\u0435\u043d\u0438\u0435 \u041c\u041e
p254
ttRp255
(dp256
g9
g13
sg11
g253
sg10
L62L
sg12
g254
sbag2
(g3
g4
(L63L
VPODR
p257
V\u041a\u043e\u0434 \u043e\u0442\u0434\u0435\u043b\u0435\u043d\u0438\u044f
p258
ttRp259
(dp260
g9
g13
sg11
g257
sg10
L63L
sg12
g258
sbag2
(g3
g4
(L64L
VPROFIL
p261
V\u041f\u0440\u043e\u0444\u0438\u043b\u044c
p262
ttRp263
(dp264
g9
g13
sg11
g261
sg10
L64L
sg12
g262
sbag2
(g3
g4
(L65L
VDET
p265
V\u041f\u0440\u0438\u0437\u043d\u0430\u043a \u0434\u0435\u0442\u0441\u043a\u043e\u0433\u043e \u043f\u0440\u043e\u0444\u0438\u043b\u044f
p266
ttRp267
(dp268
g9
g13
sg11
g265
sg10
L65L
sg12
g266
sbag2
(g3
g4
(L66L
VNHISTORY
p269
V\u041d\u043e\u043c\u0435\u0440 \u0438\u0441\u0442\u043e\u0440\u0438\u0438 \u0431\u043e\u043b\u0435\u0437\u043d\u0438/\u0422\u0430\u043b\u043e\u043d\u0430 \u0430\u043c\u0431\u0443\u043b\u0430\u0442\u043e\u0440\u043d\u043e\u0433\u043e \u043f\u0440\u0438\u0435\u043c\u0430/\u0430\u043c\u0431\u0443\u043b\u0430\u0442\u043e\u0440\u043d\u0430\u044f \u043a\u0430\u0440\u0442\u0430
p270
ttRp271
(dp272
g9
g13
sg11
g269
sg10
L66L
sg12
g270
sbag2
(g3
g4
(L67L
VDATE_1
p273
V\u0414\u0430\u0442\u0430 \u043d\u0430\u0447\u0430\u043b\u0430 \u043b\u0435\u0447\u0435\u043d\u0438\u044f
p274
ttRp275
(dp276
g9
g13
sg11
g273
sg10
L67L
sg12
g274
sbag2
(g3
g4
(L68L
VDATE_2
p277
V\u0414\u0430\u0442\u0430 \u043e\u043a\u043e\u043d\u0447\u0430\u043d\u0438\u044f \u043b\u0435\u0447\u0435\u043d\u0438\u044f
p278
ttRp279
(dp280
g9
g13
sg11
g277
sg10
L68L
sg12
g278
sbag2
(g3
g4
(L69L
VDS0
p281
V\u0414\u0438\u0430\u0433\u043d\u043e\u0437 \u043f\u0435\u0440\u0432\u0438\u0447\u043d\u044b\u0439 (\u043a\u043e\u0434 \u043a\u043b\u0438\u043d\u0438\u0447\u0435\u0441\u043a\u043e\u0439 \u0441\u0442\u0430\u0434\u0438\u0438 \u043e\u043d\u043a\u043e\u043b\u043e\u0433\u0438\u0447\u0435\u0441\u043a\u043e\u0433\u043e \u0437\u0430\u0431\u043e\u043b\u0435\u0432\u0430\u043d\u0438\u044f)
p282
ttRp283
(dp284
g9
g13
sg11
g281
sg10
L69L
sg12
g282
sbag2
(g3
g4
(L70L
VDS1
p285
V\u0414\u0438\u0430\u0433\u043d\u043e\u0437 \u043e\u0441\u043d\u043e\u0432\u043d\u043e\u0439
p286
ttRp287
(dp288
g9
g13
sg11
g285
sg10
L70L
sg12
g286
sbag2
(g3
g4
(L71L
VDS2
p289
V\u0414\u0438\u0430\u0433\u043d\u043e\u0437 \u0441\u043e\u043f\u0443\u0442\u0441\u0442\u0432\u0443\u044e\u0449\u0435\u0433\u043e \u0437\u0430\u0431\u043e\u043b\u0435\u0432\u0430\u043d\u0438\u044f
p290
ttRp291
(dp292
g9
g13
sg11
g289
sg10
L71L
sg12
g290
sbag2
(g3
g4
(L72L
VCODE_MES1
p293
V\u041a\u043e\u0434 \u041c\u042d\u0421
p294
ttRp295
(dp296
g9
g13
sg11
g293
sg10
L72L
sg12
g294
sbag2
(g3
g4
(L73L
VCODE_MES2
p297
V\u041a\u043e\u0434 \u041c\u042d\u0421 \u0441\u043e\u043f\u0443\u0442\u0441\u0442\u0432\u0443\u044e\u0449\u0435\u0433\u043e \u0437\u0430\u0431\u043e\u043b\u0435\u0432\u0430\u043d\u0438\u044f
p298
ttRp299
(dp300
g9
g13
sg11
g297
sg10
L73L
sg12
g298
sbag2
(g3
g4
(L74L
VRSLT
p301
V\u0420\u0435\u0437\u0443\u043b\u044c\u0442\u0430\u0442 \u043e\u0431\u0440\u0430\u0449\u0435\u043d\u0438\u044f/\u0433\u043e\u0441\u043f\u0438\u0442\u0430\u043b\u0438\u0437\u0430\u0446\u0438\u0438
p302
ttRp303
(dp304
g9
g13
sg11
g301
sg10
L74L
sg12
g302
sbag2
(g3
g4
(L75L
VISHOD
p305
V\u0418\u0441\u0445\u043e\u0434 \u0437\u0430\u0431\u043e\u043b\u0435\u0432\u0430\u043d\u0438\u044f
p306
ttRp307
(dp308
g9
g13
sg11
g305
sg10
L75L
sg12
g306
sbag2
(g3
g4
(L76L
VPRVS
p309
V\u0421\u043f\u0435\u0446\u0438\u0430\u043b\u044c\u043d\u043e\u0441\u0442\u044c \u043b\u0435\u0447\u0430\u0449\u0435\u0433\u043e \u0432\u0440\u0430\u0447\u0430
p310
ttRp311
(dp312
g9
g13
sg11
g309
sg10
L76L
sg12
g310
sbag2
(g3
g4
(L77L
VIDDOKT
p313
V\u0421\u041d\u0418\u041b\u0421 \u0432\u0430\u0447\u0430, \u0437\u0430\u043a\u0440\u044b\u0432\u0448\u0435\u0433\u043e \u0442\u0430\u043b\u043e\u043d/\u0438\u0441\u0442\u043e\u0440\u0438\u044e \u0431\u043e\u043b\u0435\u0437\u043d\u0438
p314
ttRp315
(dp316
g9
g13
sg11
g313
sg10
L77L
sg12
g314
sbag2
(g3
g4
(L78L
VOS_SLUCH
p317
V\u041f\u0440\u0438\u0437\u043d\u0430\u043a "\u041e\u0441\u043e\u0431\u044b\u0439 \u0441\u043b\u0443\u0447\u0430\u0439" \u043f\u0440\u0438 \u0440\u0435\u0433\u0438\u0441\u0442\u0440\u0430\u0446\u0438\u0438 \u043e\u0431\u0440\u0430\u0449\u0435\u043d\u0438\u044f \u0437\u0430 \u043c\u0435\u0434\u0438\u0446\u0438\u043d\u0441\u043a\u043e\u0439 \u043f\u043e\u043c\u043e\u0449\u044c\u044e
p318
ttRp319
(dp320
g9
g13
sg11
g317
sg10
L78L
sg12
g318
sbag2
(g3
g4
(L79L
VIDSP
p321
V\u041a\u043e\u0434 \u0441\u043f\u043e\u0441\u043e\u0431\u0430 \u043e\u043f\u043b\u0430\u0442\u044b \u043c\u0435\u0434\u0438\u0446\u0438\u043d\u0441\u043a\u043e\u0439 \u043f\u043e\u043c\u043e\u0449\u0438
p322
ttRp323
(dp324
g9
g13
sg11
g321
sg10
L79L
sg12
g322
sbag2
(g3
g4
(L80L
VED_COL
p325
V\u041a\u043e\u043b\u0438\u0447\u0435\u0441\u0442\u0432\u043e \u0435\u0434\u0438\u043d\u0438\u0446 \u043e\u043f\u043b\u0430\u0442\u044b \u043c\u0435\u0434\u0438\u0446\u0438\u043d\u0441\u043a\u043e\u0439 \u043f\u043e\u043c\u043e\u0449\u0438
p326
ttRp327
(dp328
g9
g13
sg11
g325
sg10
L80L
sg12
g326
sbag2
(g3
g4
(L81L
VTARIF
p329
V\u0422\u0430\u0440\u0438\u0444
p330
ttRp331
(dp332
g9
g13
sg11
g329
sg10
L81L
sg12
g330
sbag2
(g3
g4
(L82L
VSUMV
p333
V\u0421\u0443\u043c\u043c\u0430, \u0432\u044b\u0441\u0442\u0430\u0432\u043b\u0435\u043d\u043d\u0430\u044f \u043a \u043e\u043f\u043b\u0430\u0442\u0435
p334
ttRp335
(dp336
g9
g13
sg11
g333
sg10
L82L
sg12
g334
sbag2
(g3
g4
(L83L
VOPLATA
p337
V\u0422\u0438\u043f \u043e\u043f\u043b\u0430\u0442\u044b
p338
ttRp339
(dp340
g9
g13
sg11
g337
sg10
L83L
sg12
g338
sbag2
(g3
g4
(L84L
VSUMP
p341
V\u0421\u0443\u043c\u043c\u0443, \u043f\u0440\u0438\u043d\u044f\u0442\u0430\u044f \u043a \u043e\u043f\u043b\u0430\u0442\u0435 \u0421\u041c\u041e (\u0422\u0424\u041e\u041c\u0421)
p342
ttRp343
(dp344
g9
g13
sg11
g341
sg10
L84L
sg12
g342
sbag2
(g3
g4
(L85L
VREFREASON
p345
V\u041a\u043e\u0434 \u043f\u0440\u0438\u0447\u0438\u043d\u044b \u043e\u0442\u043a\u0430\u0437\u0430 (\u0447\u0430\u0441\u0442\u0438\u0447\u043d\u043e\u0439) \u043e\u043f\u043b\u0430\u0442\u044b
p346
ttRp347
(dp348
g9
g13
sg11
g345
sg10
L85L
sg12
g346
sbag2
(g3
g4
(L86L
VUSL
p349
V\u0421\u0432\u0435\u0434\u0435\u043d\u0438\u044f \u043e\u0431 \u0443\u0441\u043b\u0443\u0433\u0435
p350
ttRp351
(dp352
g9
g13
sg11
g349
sg10
L86L
sg12
g350
sbag2
(g3
g4
(L87L
VIDSERV
p353
V\u041d\u043e\u043c\u0435\u0440 \u0437\u0430\u043f\u0438\u0441\u0438 \u0432 \u0440\u0435\u0435\u0441\u0442\u0440\u0435 \u0443\u0441\u043b\u0443\u0433
p354
ttRp355
(dp356
g9
g13
sg11
g353
sg10
L87L
sg12
g354
sbag2
(g3
g4
(L88L
VDATE_IN
p357
V\u0414\u0430\u0442\u0430 \u043d\u0430\u0447\u0430\u043b\u0430 \u043e\u043a\u0430\u0437\u0430\u043d\u0438\u044f \u0443\u0441\u043b\u0443\u0433
p358
ttRp359
(dp360
g9
g13
sg11
g357
sg10
L88L
sg12
g358
sbag2
(g3
g4
(L89L
VDATE_OUT
p361
V\u0414\u0430\u0442\u0430 \u043e\u043a\u043e\u043d\u0447\u0430\u043d\u0438\u044f \u043e\u043a\u0430\u0437\u0430\u043d\u0438\u044f \u0443\u0441\u043b\u0443\u0433
p362
ttRp363
(dp364
g9
g13
sg11
g361
sg10
L89L
sg12
g362
sbag2
(g3
g4
(L90L
VDS
p365
V\u0414\u0438\u0430\u0433\u043d\u043e\u0437
p366
ttRp367
(dp368
g9
g13
sg11
g365
sg10
L90L
sg12
g366
sbag2
(g3
g4
(L91L
VCODE_USL
p369
V\u041a\u043e\u0434 \u0443\u0441\u043b\u0443\u0433\u0438
p370
ttRp371
(dp372
g9
g13
sg11
g369
sg10
L91L
sg12
g370
sbag2
(g3
g4
(L92L
VROL_USL
p373
V\u041a\u043e\u043b\u0438\u0447\u0435\u0441\u0442\u0432\u043e \u0443\u0441\u043b\u0443\u0433 (\u043a\u0440\u0430\u0442\u043d\u043e\u0441\u0442\u044c \u0443\u0441\u043b\u0443\u0433\u0438)
p374
ttRp375
(dp376
g9
g13
sg11
g373
sg10
L92L
sg12
g374
sbag2
(g3
g4
(L93L
VSUMV_USL
p377
V\u0421\u0442\u043e\u0438\u043c\u043e\u0441\u0442\u044c \u043c\u0435\u0434\u0438\u0446\u0438\u043d\u0441\u043a\u043e\u0439 \u0443\u0441\u043b\u0443\u0433\u0438 \u0432\u044b\u0441\u0442\u0430\u0432\u043b\u0435\u043d\u043d\u043e\u0439 \u043a \u043e\u043f\u043b\u0430\u0442\u0435 (\u0440\u0443\u0431.)
p378
ttRp379
(dp380
g9
g13
sg11
g377
sg10
L93L
sg12
g378
sbag2
(g3
g4
(L94L
VCODE_MD
p381
V\u041a\u043e\u0434 \u043c\u0435\u0434\u0438\u0446\u0438\u043d\u0441\u043a\u043e\u0433\u043e \u0440\u0430\u0431\u043e\u0442\u043d\u0438\u043a\u0430, \u043e\u043a\u0430\u0437\u0430\u0432\u0448\u0435\u0433\u043e \u043c\u0435\u0434\u0438\u0446\u0438\u043d\u0441\u043a\u0443\u044e \u0443\u0441\u043b\u0443\u0433\u0443
p382
ttRp383
(dp384
g9
g13
sg11
g381
sg10
L94L
sg12
g382
sbag2
(g3
g4
(L95L
VCOMENTU
p385
V\u0421\u043b\u0443\u0436\u0435\u0431\u043d\u043e\u0435 \u043f\u043e\u043b\u0435
p386
ttRp387
(dp388
g9
g13
sg11
g385
sg10
L95L
sg12
g386
sbag2
(g3
g4
(L96L
VCOMENTSL
p389
V\u0421\u043b\u0443\u0436\u0435\u0431\u043d\u043e\u0435 \u043f\u043e\u043b\u0435
p390
ttRp391
(dp392
g9
g13
sg11
g389
sg10
L96L
sg12
g390
sbag2
(g3
g4
(L97L
VKOL_USL
p393
V\u041a\u043e\u043b\u0438\u0447\u0435\u0441\u0442\u0432\u043e \u0443\u0441\u043b\u0443\u0433 (\u043a\u0440\u0430\u0442\u043d\u043e\u0441\u0442\u044c \u0443\u0441\u043b\u0443\u0433\u0438)
p394
ttRp395
(dp396
g9
g13
sg11
g393
sg10
L97L
sg12
g394
sba.