(lp1
ccopy_reg
_reconstructor
p2
(csqlalchemy.util._collections
KeyedTuple
p3
c__builtin__
tuple
p4
(L1L
Vxml
p5
VXML
p6
ttRp7
(dp8
S'_labels'
p9
(S'id'
p10
S'code'
p11
S'name'
p12
tp13
sg11
g5
sg10
L1L
sg12
g6
sbag2
(g3
g4
(L2L
Vdbf
p14
VDBF
p15
ttRp16
(dp17
g9
g13
sg11
g14
sg10
L2L
sg12
g15
sba.