(lp1
ccopy_reg
_reconstructor
p2
(csqlalchemy.util._collections
KeyedTuple
p3
c__builtin__
tuple
p4
(I1
Vxml
p5
V\u0412\u044b\u0433\u0440\u0443\u0437\u043a\u0430 XML
p6
ttRp7
(dp8
S'_labels'
p9
(S'id'
p10
S'code'
p11
S'name'
p12
tp13
sg11
g5
sg10
I1
sg12
g6
sbag2
(g3
g4
(I2
Vdbf
p14
V\u0412\u044b\u0433\u0440\u0443\u0437\u043a\u0430 DBF
p15
ttRp16
(dp17
g9
g13
sg11
g14
sg10
I2
sg12
g15
sba.