(lp1
ccopy_reg
_reconstructor
p2
(csqlalchemy.util._collections
KeyedTuple
p3
c__builtin__
tuple
p4
(I1
VPERS_LIST
p5
VPERS_LIST
p6
I00
ttRp7
(dp8
S'is_leaf'
p9
I00
sS'_labels'
p10
(S'id'
p11
S'code'
p12
S'name'
p13
g9
tp14
sg12
g5
sg11
I1
sg13
g6
sbag2
(g3
g4
(I2
VZGLV
p15
V\u0417\u0430\u0433\u043e\u043b\u043e\u0432\u043e\u043a \u0444\u0430\u0439\u043b\u0430
p16
I00
ttRp17
(dp18
g9
I00
sg10
g14
sg12
g15
sg11
I2
sg13
g16
sbag2
(g3
g4
(I3
VVERSION
p19
V\u0412\u0435\u0440\u0441\u0438\u044f \u0432\u0437\u0430\u0438\u043c\u043e\u0434\u0435\u0439\u0441\u0442\u0432\u0438\u044f
p20
I01
ttRp21
(dp22
g9
I01
sg10
g14
sg12
g19
sg11
I3
sg13
g20
sbag2
(g3
g4
(I4
VDATA
p23
V\u0414\u0430\u0442\u0430
p24
I01
ttRp25
(dp26
g9
I01
sg10
g14
sg12
g23
sg11
I4
sg13
g24
sbag2
(g3
g4
(I5
VFILENAME
p27
V\u0418\u043c\u044f \u0444\u0430\u0439\u043b\u0430
p28
I01
ttRp29
(dp30
g9
I01
sg10
g14
sg12
g27
sg11
I5
sg13
g28
sbag2
(g3
g4
(I6
VFILENAME1
p31
V\u0418\u043c\u044f \u043e\u0441\u043d\u043e\u0432\u043d\u043e\u0433\u043e \u0444\u0430\u0439\u043b\u0430
p32
I01
ttRp33
(dp34
g9
I01
sg10
g14
sg12
g31
sg11
I6
sg13
g32
sbag2
(g3
g4
(I7
VPERS
p35
V\u0414\u0430\u043d\u043d\u044b\u0435
p36
I00
ttRp37
(dp38
g9
I00
sg10
g14
sg12
g35
sg11
I7
sg13
g36
sbag2
(g3
g4
(I8
VFAM
p39
V\u0424\u0430\u043c\u0438\u043b\u0438\u044f \u043f\u0430\u0446\u0438\u0435\u043d\u0442\u0430
p40
I01
ttRp41
(dp42
g9
I01
sg10
g14
sg12
g39
sg11
I8
sg13
g40
sbag2
(g3
g4
(I9
VIM
p43
V\u0418\u043c\u044f \u043f\u0430\u0446\u0438\u0435\u043d\u0442\u0430
p44
I01
ttRp45
(dp46
g9
I01
sg10
g14
sg12
g43
sg11
I9
sg13
g44
sbag2
(g3
g4
(I10
VOT
p47
V\u041e\u0442\u0447\u0435\u0441\u0442\u0432\u043e \u043f\u0430\u0446\u0438\u0435\u043d\u0442\u0430
p48
I01
ttRp49
(dp50
g9
I01
sg10
g14
sg12
g47
sg11
I10
sg13
g48
sbag2
(g3
g4
(I11
VW
V\u041f\u043e\u043b \u043f\u0430\u0446\u0438\u0435\u043d\u0442\u0430
p51
I01
ttRp52
(dp53
g9
I01
sg10
g14
sg12
VW
sg11
I11
sg13
g51
sbag2
(g3
g4
(I12
VDR
p54
V\u0414\u0430\u0442\u0430 \u0440\u043e\u0436\u0434\u0435\u043d\u0438\u044f \u043f\u0430\u0446\u0438\u0435\u043d\u0442\u0430
p55
I01
ttRp56
(dp57
g9
I01
sg10
g14
sg12
g54
sg11
I12
sg13
g55
sbag2
(g3
g4
(I13
VFAM_P
p58
V\u0424\u0430\u043c\u0438\u043b\u0438\u044f \u043f\u0440\u0435\u0434\u0441\u0442\u0430\u0432\u0438\u0442\u0435\u043b\u044f \u043f\u0430\u0446\u0438\u0435\u043d\u0442\u0430
p59
I01
ttRp60
(dp61
g9
I01
sg10
g14
sg12
g58
sg11
I13
sg13
g59
sbag2
(g3
g4
(I14
VIM_P
p62
V\u0418\u043c\u044f \u043f\u0440\u0435\u0434\u0441\u0442\u0430\u0432\u0438\u0442\u0435\u043b\u044f \u043f\u0430\u0446\u0438\u0435\u043d\u0442\u0430
p63
I01
ttRp64
(dp65
g9
I01
sg10
g14
sg12
g62
sg11
I14
sg13
g63
sbag2
(g3
g4
(I15
VOT_P
p66
V\u041e\u0442\u0447\u0435\u0441\u0442\u0432\u043e \u043f\u0440\u0435\u0434\u0441\u0442\u0430\u0432\u0438\u0442\u0435\u043b\u044f \u043f\u0430\u0446\u0438\u0435\u043d\u0442\u0430
p67
I01
ttRp68
(dp69
g9
I01
sg10
g14
sg12
g66
sg11
I15
sg13
g67
sbag2
(g3
g4
(I16
VW_P
p70
V\u041f\u043e\u043b \u043f\u0440\u0435\u0434\u0441\u0442\u0430\u0432\u0438\u0442\u0435\u043b\u044f \u043f\u0430\u0446\u0438\u0435\u043d\u0442\u0430
p71
I01
ttRp72
(dp73
g9
I01
sg10
g14
sg12
g70
sg11
I16
sg13
g71
sbag2
(g3
g4
(I17
VDR_P
p74
V\u0414\u0430\u0442\u0430 \u0440\u043e\u0436\u0434\u0435\u043d\u0438\u044f \u043f\u0440\u0435\u0434\u0441\u0442\u0430\u0432\u0438\u0442\u0435\u043b\u044f \u043f\u0430\u0446\u0438\u0435\u043d\u0442\u0430
p75
I01
ttRp76
(dp77
g9
I01
sg10
g14
sg12
g74
sg11
I17
sg13
g75
sbag2
(g3
g4
(I18
VMR
p78
V\u041c\u0435\u0441\u0442\u043e \u0440\u043e\u0436\u0434\u0435\u043d\u0438\u044f \u043f\u0440\u0435\u0434\u0441\u0442\u0430\u0432\u0438\u0442\u0435\u043b\u044f \u0438\u043b\u0438 \u043f\u0430\u0446\u0438\u0435\u043d\u0442\u0430
p79
I01
ttRp80
(dp81
g9
I01
sg10
g14
sg12
g78
sg11
I18
sg13
g79
sbag2
(g3
g4
(I19
VDOCTYPE
p82
V\u0422\u0438\u043f \u0434\u043e\u043a\u0443\u043c\u0435\u043d\u0442\u0430, \u0443\u0434\u043e\u0441\u0442\u043e\u0432\u0435\u0440\u044f\u044e\u0449\u0435\u0433\u043e \u043b\u0438\u0447\u043d\u043e\u0441\u0442\u044c \u043f\u0430\u0446\u0438\u0435\u043d\u0442\u0430 \u0438\u043b\u0438 \u043f\u0440\u0435\u0434\u0441\u0442\u0430\u0432\u0438\u0442\u0435\u043b\u044f
p83
I01
ttRp84
(dp85
g9
I01
sg10
g14
sg12
g82
sg11
I19
sg13
g83
sbag2
(g3
g4
(I20
VDOCSER
p86
V\u0421\u0435\u0440\u0438\u044f \u0434\u043e\u043a\u0443\u043c\u0435\u043d\u0442\u0430, \u0443\u0434\u043e\u0441\u0442\u043e\u0432\u0435\u0440\u044f\u044e\u0449\u0435\u0433\u043e \u043b\u0438\u0447\u043d\u043e\u0441\u0442\u044c \u043f\u0430\u0446\u0438\u0435\u043d\u0442\u0430 \u0438\u043b\u0438 \u043f\u0440\u0435\u0434\u0441\u0442\u0430\u0432\u0438\u0442\u0435\u043b\u044f
p87
I01
ttRp88
(dp89
g9
I01
sg10
g14
sg12
g86
sg11
I20
sg13
g87
sbag2
(g3
g4
(I21
VDOCNUM
p90
V\u041d\u043e\u043c\u0435\u0440 \u0434\u043e\u043a\u0443\u043c\u0435\u043d\u0442\u0430, \u0443\u0434\u043e\u0441\u0442\u043e\u0432\u0435\u0440\u044f\u044e\u0449\u0435\u0433\u043e \u043b\u0438\u0447\u043d\u043e\u0441\u0442\u044c \u043f\u0430\u0446\u0438\u0435\u043d\u0442\u0430 \u0438\u043b\u0438 \u043f\u0440\u0435\u0434\u0441\u0442\u0430\u0432\u0438\u0442\u0435\u043b\u044f
p91
I01
ttRp92
(dp93
g9
I01
sg10
g14
sg12
g90
sg11
I21
sg13
g91
sbag2
(g3
g4
(I22
VSNILS
p94
V\u0421\u041d\u0418\u041b\u0421
p95
I01
ttRp96
(dp97
g9
I01
sg10
g14
sg12
g94
sg11
I22
sg13
g95
sbag2
(g3
g4
(I23
VOKATOP
p98
V\u041a\u043e\u0434 \u043c\u0435\u0441\u0442\u0430 \u043f\u0440\u0435\u0431\u044b\u0432\u0430\u043d\u0438\u044f \u043f\u043e \u041e\u041a\u0410\u0422\u041e
p99
I01
ttRp100
(dp101
g9
I01
sg10
g14
sg12
g98
sg11
I23
sg13
g99
sbag2
(g3
g4
(I24
VCOMENTP
p102
V\u0421\u043b\u0443\u0436\u0435\u0431\u043d\u043e\u0435 \u043f\u043e\u043b\u0435
p103
I01
ttRp104
(dp105
g9
I01
sg10
g14
sg12
g102
sg11
I24
sg13
g103
sbag2
(g3
g4
(I25
VID_PAC
p106
V\u041a\u043e\u0434 \u0437\u0430\u043f\u0438\u0441\u0438 \u043e \u043f\u0430\u0446\u0438\u0435\u043d\u0442\u0435
p107
I01
ttRp108
(dp109
g9
I01
sg10
g14
sg12
g106
sg11
I25
sg13
g107
sbag2
(g3
g4
(I26
VOKATOG
p110
V\u041a\u043e\u0434 \u043c\u0435\u0441\u0442\u0430 \u0436\u0438\u0442\u0435\u043b\u044c\u0441\u0442\u0432\u0430 \u043f\u043e \u041e\u041a\u0410\u0422\u041e
p111
I01
ttRp112
(dp113
g9
I01
sg10
g14
sg12
g110
sg11
I26
sg13
g111
sbag2
(g3
g4
(I27
VZL_LIST
p114
VZL_LIST
p115
I00
ttRp116
(dp117
g9
I00
sg10
g14
sg12
g114
sg11
I27
sg13
g115
sbag2
(g3
g4
(I28
VZGL
p118
V\u0417\u0430\u0433\u043e\u043b\u043e\u0432\u043e\u043a \u0444\u0430\u0439\u043b\u0430
p119
I00
ttRp120
(dp121
g9
I00
sg10
g14
sg12
g118
sg11
I28
sg13
g119
sbag2
(g3
g4
(I29
VSCHET
p122
V\u0421\u0447\u0435\u0442
p123
I00
ttRp124
(dp125
g9
I00
sg10
g14
sg12
g122
sg11
I29
sg13
g123
sbag2
(g3
g4
(I30
VCODE
p126
V\u041a\u043e\u0434 \u0437\u0430\u043f\u0438\u0441\u0438 \u0441\u0447\u0435\u0442\u0430
p127
I01
ttRp128
(dp129
g9
I01
sg10
g14
sg12
g126
sg11
I30
sg13
g127
sbag2
(g3
g4
(I31
VCODE_MO
p130
V\u0420\u0435\u0435\u0441\u0442\u0440\u043e\u0432\u044b\u0439 \u043d\u043e\u043c\u0435\u0440 \u043c\u0435\u0434\u0438\u0446\u0438\u043d\u0441\u043a\u043e\u0439 \u043e\u0440\u0433\u0430\u043d\u0438\u0437\u0430\u0446\u0438\u0438
p131
I01
ttRp132
(dp133
g9
I01
sg10
g14
sg12
g130
sg11
I31
sg13
g131
sbag2
(g3
g4
(I32
VYEAR
p134
V\u041e\u0442\u0447\u0435\u0442\u043d\u044b\u0439 \u0433\u043e\u0434
p135
I01
ttRp136
(dp137
g9
I01
sg10
g14
sg12
g134
sg11
I32
sg13
g135
sbag2
(g3
g4
(I33
VMONTH
p138
V\u041e\u0442\u0447\u0435\u0442\u043d\u044b\u0439 \u043c\u0435\u0441\u044f\u0446
p139
I01
ttRp140
(dp141
g9
I01
sg10
g14
sg12
g138
sg11
I33
sg13
g139
sbag2
(g3
g4
(I34
VNSCHET
p142
V\u041d\u043e\u043c\u0435\u0440 \u0441\u0447\u0435\u0442\u0430
p143
I01
ttRp144
(dp145
g9
I01
sg10
g14
sg12
g142
sg11
I34
sg13
g143
sbag2
(g3
g4
(I35
VDSCHET
p146
V\u0414\u0430\u0442\u0430 \u0432\u044b\u0441\u0442\u0430\u0432\u043b\u0435\u043d\u0438\u044f \u0441\u0447\u0435\u0442\u0430
p147
I01
ttRp148
(dp149
g9
I01
sg10
g14
sg12
g146
sg11
I35
sg13
g147
sbag2
(g3
g4
(I36
VPLAT
p150
V\u041f\u043b\u0430\u0442\u0435\u043b\u044c\u0449\u0438\u043a, \u0420\u0435\u0435\u0441\u0442\u0440\u043e\u0432\u044b\u0439 \u043d\u043e\u043c\u0435\u0440 \u0421\u041c\u041e
p151
I01
ttRp152
(dp153
g9
I01
sg10
g14
sg12
g150
sg11
I36
sg13
g151
sbag2
(g3
g4
(I37
VSUMMAV
p154
V\u0421\u0443\u043c\u043c\u0430 \u041c\u041e, \u0432\u044b\u0441\u0442\u0430\u0432\u043b\u0435\u043d\u043d\u0430\u044f \u043d\u0430 \u043e\u043f\u043b\u0430\u0442\u0443
p155
I01
ttRp156
(dp157
g9
I01
sg10
g14
sg12
g154
sg11
I37
sg13
g155
sbag2
(g3
g4
(I38
VCOMENTS
p158
V\u0421\u043b\u0443\u0436\u0435\u0431\u043d\u043e\u0435 \u043f\u043e\u043b\u0435 \u043a \u0441\u0447\u0435\u0442\u0443
p159
I01
ttRp160
(dp161
g9
I01
sg10
g14
sg12
g158
sg11
I38
sg13
g159
sbag2
(g3
g4
(I39
VSUMMAP
p162
V\u0421\u0443\u043c\u043c\u0430, \u043f\u0440\u0438\u043d\u044f\u0442\u0430\u044f \u043a \u043e\u043f\u043b\u0430\u0442\u0430 \u0421\u041c\u041e(\u0422\u0424\u041e\u041c\u0421)
p163
I01
ttRp164
(dp165
g9
I01
sg10
g14
sg12
g162
sg11
I39
sg13
g163
sbag2
(g3
g4
(I40
VSANK_MEK
p166
V\u0424\u0438\u043d\u0430\u043d\u0441\u043e\u0432\u044b\u0435 \u0441\u0430\u043d\u043a\u0446\u0438\u0438 (\u041c\u042d\u041a)
p167
I01
ttRp168
(dp169
g9
I01
sg10
g14
sg12
g166
sg11
I40
sg13
g167
sbag2
(g3
g4
(I41
VSANK_MEE
p170
V\u0424\u0438\u043d\u0430\u043d\u0441\u043e\u0432\u044b\u0435 \u0441\u0430\u043d\u043a\u0446\u0438\u0438 (\u041c\u042d\u042d)
p171
I01
ttRp172
(dp173
g9
I01
sg10
g14
sg12
g170
sg11
I41
sg13
g171
sbag2
(g3
g4
(I42
VSANK_EKMP
p174
V\u0424\u0438\u043d\u0430\u043d\u0441\u043e\u0432\u044b\u0435 \u0441\u0430\u043d\u043a\u0446\u0438\u0438 (\u042d\u041a\u041c\u041f)
p175
I01
ttRp176
(dp177
g9
I01
sg10
g14
sg12
g174
sg11
I42
sg13
g175
sbag2
(g3
g4
(I43
VZAP
p178
V\u0417\u0430\u043f\u0438\u0441\u0438
p179
I00
ttRp180
(dp181
g9
I00
sg10
g14
sg12
g178
sg11
I43
sg13
g179
sbag2
(g3
g4
(I44
VN_ZAP
p182
V\u041d\u043e\u043c\u0435\u0440 \u043f\u043e\u0437\u0438\u0446\u0438\u0438 \u0437\u0430\u043f\u0438\u0441\u0438
p183
I00
ttRp184
(dp185
g9
I00
sg10
g14
sg12
g182
sg11
I44
sg13
g183
sbag2
(g3
g4
(I45
VPR_NOV
p186
V\u041f\u0440\u0438\u0437\u043d\u0430\u043a \u0438\u0441\u043f\u0440\u0430\u0432\u043b\u0435\u043d\u043d\u043e\u0439 \u0437\u0430\u043f\u0438\u0441\u0438
p187
I00
ttRp188
(dp189
g9
I00
sg10
g14
sg12
g186
sg11
I45
sg13
g187
sbag2
(g3
g4
(I46
VPACIENT
p190
V\u0421\u0432\u0435\u0434\u0435\u043d\u0438\u044f \u043e \u043f\u0430\u0446\u0438\u0435\u043d\u0442\u0435
p191
I00
ttRp192
(dp193
g9
I00
sg10
g14
sg12
g190
sg11
I46
sg13
g191
sbag2
(g3
g4
(I47
VVPOLIS
p194
V\u0422\u0438\u043f \u0434\u043e\u043a\u0443\u043c\u0435\u043d\u0442\u0430, \u043f\u043e\u0434\u0442\u0432\u0435\u0440\u0436\u0434\u0430\u044e\u0449\u0435\u0433\u043e \u0444\u0430\u043a\u0442 \u0441\u0442\u0440\u0430\u0445\u043e\u0432\u0430\u043d\u0438\u044f \u043f\u043e \u041e\u041c\u0421
p195
I01
ttRp196
(dp197
g9
I01
sg10
g14
sg12
g194
sg11
I47
sg13
g195
sbag2
(g3
g4
(I48
VSPOLIS
p198
V\u0421\u0435\u0440\u0438\u044f \u0434\u043e\u043a\u0443\u043c\u0435\u043d\u0442\u0430, \u043f\u043e\u0434\u0442\u0432\u0435\u0440\u0436\u0434\u0430\u044e\u0449\u0435\u0433\u043e \u0444\u0430\u043a\u0442 \u0441\u0442\u0440\u0430\u0445\u043e\u0432\u0430\u043d\u0438\u044f \u043f\u043e \u041e\u041c\u0421
p199
I01
ttRp200
(dp201
g9
I01
sg10
g14
sg12
g198
sg11
I48
sg13
g199
sbag2
(g3
g4
(I49
VNPOLIS
p202
V\u041d\u043e\u043c\u0435\u0440 \u0434\u043e\u043a\u0443\u043c\u0435\u043d\u0442\u0430, \u043f\u043e\u0434\u0442\u0432\u0435\u0440\u0436\u0434\u0430\u044e\u0449\u0435\u0433\u043e \u0444\u0430\u043a\u0442 \u0441\u0442\u0440\u0430\u0445\u043e\u0432\u0430\u043d\u0438\u044f \u043f\u043e \u041e\u041c\u0421
p203
I01
ttRp204
(dp205
g9
I01
sg10
g14
sg12
g202
sg11
I49
sg13
g203
sbag2
(g3
g4
(I50
VSMO
p206
V\u0420\u0435\u0435\u0441\u0442\u0440\u043e\u0432\u044b\u0439 \u043d\u043e\u043c\u0435\u0440 \u0421\u041c\u041e
p207
I01
ttRp208
(dp209
g9
I01
sg10
g14
sg12
g206
sg11
I50
sg13
g207
sbag2
(g3
g4
(I51
VSMO_OGRN
p210
V\u041e\u0413\u0420\u041d \u0421\u041c\u041e
p211
I01
ttRp212
(dp213
g9
I01
sg10
g14
sg12
g210
sg11
I51
sg13
g211
sbag2
(g3
g4
(I52
VSMO_OK
p214
V\u041e\u041a\u0410\u0422\u041e \u0442\u0435\u0440\u0440\u0438\u0442\u043e\u0440\u0438\u0438 \u0441\u0442\u0440\u0430\u0445\u043e\u0432\u0430\u043d\u0438\u044f
p215
I01
ttRp216
(dp217
g9
I01
sg10
g14
sg12
g214
sg11
I52
sg13
g215
sbag2
(g3
g4
(I53
VSMO_NAM
p218
V\u041d\u0430\u0438\u043c\u0435\u043d\u043e\u0432\u0430\u043d\u0438\u0435 \u0421\u041c\u041e
p219
I01
ttRp220
(dp221
g9
I01
sg10
g14
sg12
g218
sg11
I53
sg13
g219
sbag2
(g3
g4
(I54
VNOVOR
p222
V\u041f\u0440\u0438\u0437\u043d\u0430\u043a \u043d\u043e\u0432\u043e\u0440\u043e\u0436\u0434\u0435\u043d\u043d\u043e\u0433\u043e
p223
I01
ttRp224
(dp225
g9
I01
sg10
g14
sg12
g222
sg11
I54
sg13
g223
sbag2
(g3
g4
(I55
VSLUCH
p226
V\u0421\u0432\u0435\u0434\u0435\u043d\u0438\u044f \u043e \u0441\u043b\u0443\u0447\u0430\u0435
p227
I00
ttRp228
(dp229
g9
I00
sg10
g14
sg12
g226
sg11
I55
sg13
g227
sbag2
(g3
g4
(I56
VIDCASE
p230
V\u041d\u043e\u043c\u0435\u0440 \u0437\u0430\u043f\u0438\u0441\u0438 \u0432 \u0440\u0435\u0435\u0441\u0442\u0440\u0435 \u0441\u043b\u0443\u0447\u0430\u0435\u0432
p231
I00
ttRp232
(dp233
g9
I00
sg10
g14
sg12
g230
sg11
I56
sg13
g231
sbag2
(g3
g4
(I57
VUSL_OK
p234
V\u0423\u0441\u043b\u043e\u0432\u0438\u044f \u043e\u043a\u0430\u0437\u0430\u043d\u0438\u044f \u043c\u0435\u0434\u0438\u0446\u0438\u043d\u0441\u043a\u043e\u0439 \u043f\u043e\u043c\u043e\u0449\u0438
p235
I01
ttRp236
(dp237
g9
I01
sg10
g14
sg12
g234
sg11
I57
sg13
g235
sbag2
(g3
g4
(I58
VVIDPOM
p238
V\u0412\u0438\u0434 \u043f\u043e\u043c\u043e\u0449\u0438
p239
I01
ttRp240
(dp241
g9
I01
sg10
g14
sg12
g238
sg11
I58
sg13
g239
sbag2
(g3
g4
(I59
VNPR_MO
p242
V\u041a\u043e\u0434 \u041c\u041e, \u043d\u0430\u043f\u0440\u0430\u0432\u0438\u0432\u0448\u0438\u0433\u043e \u043d\u0430 \u043b\u0435\u0447\u0435\u043d\u0438\u0435 (\u0433\u043e\u0441\u043f\u0438\u0442\u0430\u043b\u0438\u0437\u0430\u0446\u0438\u044e, \u0434\u0438\u0430\u0433\u043d\u043e\u0441\u0442\u0438\u043a\u0443, \u043a\u043e\u043d\u0441\u0443\u043b\u044c\u0442\u0430\u0446\u0438\u044e)
p243
I01
ttRp244
(dp245
g9
I01
sg10
g14
sg12
g242
sg11
I59
sg13
g243
sbag2
(g3
g4
(I60
VEXTR
p246
V\u041d\u0430\u043f\u0440\u0430\u0432\u043b\u0435\u043d\u0438\u0435 (\u0433\u043e\u0441\u043f\u0438\u0442\u0430\u043b\u0438\u0437\u0430\u0446\u0438\u044f)
p247
I01
ttRp248
(dp249
g9
I01
sg10
g14
sg12
g246
sg11
I60
sg13
g247
sbag2
(g3
g4
(I61
VLPU
p250
V\u041a\u043e\u0434 \u041c\u041e
p251
I01
ttRp252
(dp253
g9
I01
sg10
g14
sg12
g250
sg11
I61
sg13
g251
sbag2
(g3
g4
(I62
VLPU_1
p254
V\u041f\u043e\u0434\u0440\u0430\u0437\u0434\u0435\u043b\u0435\u043d\u0438\u0435 \u041c\u041e
p255
I01
ttRp256
(dp257
g9
I01
sg10
g14
sg12
g254
sg11
I62
sg13
g255
sbag2
(g3
g4
(I63
VPODR
p258
V\u041a\u043e\u0434 \u043e\u0442\u0434\u0435\u043b\u0435\u043d\u0438\u044f
p259
I01
ttRp260
(dp261
g9
I01
sg10
g14
sg12
g258
sg11
I63
sg13
g259
sbag2
(g3
g4
(I64
VPROFIL
p262
V\u041f\u0440\u043e\u0444\u0438\u043b\u044c
p263
I01
ttRp264
(dp265
g9
I01
sg10
g14
sg12
g262
sg11
I64
sg13
g263
sbag2
(g3
g4
(I65
VDET
p266
V\u041f\u0440\u0438\u0437\u043d\u0430\u043a \u0434\u0435\u0442\u0441\u043a\u043e\u0433\u043e \u043f\u0440\u043e\u0444\u0438\u043b\u044f
p267
I01
ttRp268
(dp269
g9
I01
sg10
g14
sg12
g266
sg11
I65
sg13
g267
sbag2
(g3
g4
(I66
VNHISTORY
p270
V\u041d\u043e\u043c\u0435\u0440 \u0438\u0441\u0442\u043e\u0440\u0438\u0438 \u0431\u043e\u043b\u0435\u0437\u043d\u0438/\u0422\u0430\u043b\u043e\u043d\u0430 \u0430\u043c\u0431\u0443\u043b\u0430\u0442\u043e\u0440\u043d\u043e\u0433\u043e \u043f\u0440\u0438\u0435\u043c\u0430/\u0430\u043c\u0431\u0443\u043b\u0430\u0442\u043e\u0440\u043d\u0430\u044f \u043a\u0430\u0440\u0442\u0430
p271
I01
ttRp272
(dp273
g9
I01
sg10
g14
sg12
g270
sg11
I66
sg13
g271
sbag2
(g3
g4
(I67
VDATE_1
p274
V\u0414\u0430\u0442\u0430 \u043d\u0430\u0447\u0430\u043b\u0430 \u043b\u0435\u0447\u0435\u043d\u0438\u044f
p275
I01
ttRp276
(dp277
g9
I01
sg10
g14
sg12
g274
sg11
I67
sg13
g275
sbag2
(g3
g4
(I68
VDATE_2
p278
V\u0414\u0430\u0442\u0430 \u043e\u043a\u043e\u043d\u0447\u0430\u043d\u0438\u044f \u043b\u0435\u0447\u0435\u043d\u0438\u044f
p279
I01
ttRp280
(dp281
g9
I01
sg10
g14
sg12
g278
sg11
I68
sg13
g279
sbag2
(g3
g4
(I69
VDS0
p282
V\u0414\u0438\u0430\u0433\u043d\u043e\u0437 \u043f\u0435\u0440\u0432\u0438\u0447\u043d\u044b\u0439 (\u043a\u043e\u0434 \u043a\u043b\u0438\u043d\u0438\u0447\u0435\u0441\u043a\u043e\u0439 \u0441\u0442\u0430\u0434\u0438\u0438 \u043e\u043d\u043a\u043e\u043b\u043e\u0433\u0438\u0447\u0435\u0441\u043a\u043e\u0433\u043e \u0437\u0430\u0431\u043e\u043b\u0435\u0432\u0430\u043d\u0438\u044f)
p283
I01
ttRp284
(dp285
g9
I01
sg10
g14
sg12
g282
sg11
I69
sg13
g283
sbag2
(g3
g4
(I70
VDS1
p286
V\u0414\u0438\u0430\u0433\u043d\u043e\u0437 \u043e\u0441\u043d\u043e\u0432\u043d\u043e\u0439
p287
I01
ttRp288
(dp289
g9
I01
sg10
g14
sg12
g286
sg11
I70
sg13
g287
sbag2
(g3
g4
(I71
VDS2
p290
V\u0414\u0438\u0430\u0433\u043d\u043e\u0437 \u0441\u043e\u043f\u0443\u0442\u0441\u0442\u0432\u0443\u044e\u0449\u0435\u0433\u043e \u0437\u0430\u0431\u043e\u043b\u0435\u0432\u0430\u043d\u0438\u044f
p291
I01
ttRp292
(dp293
g9
I01
sg10
g14
sg12
g290
sg11
I71
sg13
g291
sbag2
(g3
g4
(I72
VCODE_MES1
p294
V\u041a\u043e\u0434 \u041c\u042d\u0421
p295
I01
ttRp296
(dp297
g9
I01
sg10
g14
sg12
g294
sg11
I72
sg13
g295
sbag2
(g3
g4
(I73
VCODE_MES2
p298
V\u041a\u043e\u0434 \u041c\u042d\u0421 \u0441\u043e\u043f\u0443\u0442\u0441\u0442\u0432\u0443\u044e\u0449\u0435\u0433\u043e \u0437\u0430\u0431\u043e\u043b\u0435\u0432\u0430\u043d\u0438\u044f
p299
I01
ttRp300
(dp301
g9
I01
sg10
g14
sg12
g298
sg11
I73
sg13
g299
sbag2
(g3
g4
(I74
VRSLT
p302
V\u0420\u0435\u0437\u0443\u043b\u044c\u0442\u0430\u0442 \u043e\u0431\u0440\u0430\u0449\u0435\u043d\u0438\u044f/\u0433\u043e\u0441\u043f\u0438\u0442\u0430\u043b\u0438\u0437\u0430\u0446\u0438\u0438
p303
I01
ttRp304
(dp305
g9
I01
sg10
g14
sg12
g302
sg11
I74
sg13
g303
sbag2
(g3
g4
(I75
VISHOD
p306
V\u0418\u0441\u0445\u043e\u0434 \u0437\u0430\u0431\u043e\u043b\u0435\u0432\u0430\u043d\u0438\u044f
p307
I01
ttRp308
(dp309
g9
I01
sg10
g14
sg12
g306
sg11
I75
sg13
g307
sbag2
(g3
g4
(I76
VPRVS
p310
V\u0421\u043f\u0435\u0446\u0438\u0430\u043b\u044c\u043d\u043e\u0441\u0442\u044c \u043b\u0435\u0447\u0430\u0449\u0435\u0433\u043e \u0432\u0440\u0430\u0447\u0430
p311
I01
ttRp312
(dp313
g9
I01
sg10
g14
sg12
g310
sg11
I76
sg13
g311
sbag2
(g3
g4
(I77
VIDDOKT
p314
V\u0421\u041d\u0418\u041b\u0421 \u0432\u0430\u0447\u0430, \u0437\u0430\u043a\u0440\u044b\u0432\u0448\u0435\u0433\u043e \u0442\u0430\u043b\u043e\u043d/\u0438\u0441\u0442\u043e\u0440\u0438\u044e \u0431\u043e\u043b\u0435\u0437\u043d\u0438
p315
I01
ttRp316
(dp317
g9
I01
sg10
g14
sg12
g314
sg11
I77
sg13
g315
sbag2
(g3
g4
(I78
VOS_SLUCH
p318
V\u041f\u0440\u0438\u0437\u043d\u0430\u043a "\u041e\u0441\u043e\u0431\u044b\u0439 \u0441\u043b\u0443\u0447\u0430\u0439" \u043f\u0440\u0438 \u0440\u0435\u0433\u0438\u0441\u0442\u0440\u0430\u0446\u0438\u0438 \u043e\u0431\u0440\u0430\u0449\u0435\u043d\u0438\u044f \u0437\u0430 \u043c\u0435\u0434\u0438\u0446\u0438\u043d\u0441\u043a\u043e\u0439 \u043f\u043e\u043c\u043e\u0449\u044c\u044e
p319
I01
ttRp320
(dp321
g9
I01
sg10
g14
sg12
g318
sg11
I78
sg13
g319
sbag2
(g3
g4
(I79
VIDSP
p322
V\u041a\u043e\u0434 \u0441\u043f\u043e\u0441\u043e\u0431\u0430 \u043e\u043f\u043b\u0430\u0442\u044b \u043c\u0435\u0434\u0438\u0446\u0438\u043d\u0441\u043a\u043e\u0439 \u043f\u043e\u043c\u043e\u0449\u0438
p323
I01
ttRp324
(dp325
g9
I01
sg10
g14
sg12
g322
sg11
I79
sg13
g323
sbag2
(g3
g4
(I80
VED_COL
p326
V\u041a\u043e\u043b\u0438\u0447\u0435\u0441\u0442\u0432\u043e \u0435\u0434\u0438\u043d\u0438\u0446 \u043e\u043f\u043b\u0430\u0442\u044b \u043c\u0435\u0434\u0438\u0446\u0438\u043d\u0441\u043a\u043e\u0439 \u043f\u043e\u043c\u043e\u0449\u0438
p327
I01
ttRp328
(dp329
g9
I01
sg10
g14
sg12
g326
sg11
I80
sg13
g327
sbag2
(g3
g4
(I81
VTARIF
p330
V\u0422\u0430\u0440\u0438\u0444
p331
I01
ttRp332
(dp333
g9
I01
sg10
g14
sg12
g330
sg11
I81
sg13
g331
sbag2
(g3
g4
(I82
VSUMV
p334
V\u0421\u0443\u043c\u043c\u0430, \u0432\u044b\u0441\u0442\u0430\u0432\u043b\u0435\u043d\u043d\u0430\u044f \u043a \u043e\u043f\u043b\u0430\u0442\u0435
p335
I01
ttRp336
(dp337
g9
I01
sg10
g14
sg12
g334
sg11
I82
sg13
g335
sbag2
(g3
g4
(I83
VOPLATA
p338
V\u0422\u0438\u043f \u043e\u043f\u043b\u0430\u0442\u044b
p339
I01
ttRp340
(dp341
g9
I01
sg10
g14
sg12
g338
sg11
I83
sg13
g339
sbag2
(g3
g4
(I84
VSUMP
p342
V\u0421\u0443\u043c\u043c\u0443, \u043f\u0440\u0438\u043d\u044f\u0442\u0430\u044f \u043a \u043e\u043f\u043b\u0430\u0442\u0435 \u0421\u041c\u041e (\u0422\u0424\u041e\u041c\u0421)
p343
I01
ttRp344
(dp345
g9
I01
sg10
g14
sg12
g342
sg11
I84
sg13
g343
sbag2
(g3
g4
(I85
VREFREASON
p346
V\u041a\u043e\u0434 \u043f\u0440\u0438\u0447\u0438\u043d\u044b \u043e\u0442\u043a\u0430\u0437\u0430 (\u0447\u0430\u0441\u0442\u0438\u0447\u043d\u043e\u0439) \u043e\u043f\u043b\u0430\u0442\u044b
p347
I01
ttRp348
(dp349
g9
I01
sg10
g14
sg12
g346
sg11
I85
sg13
g347
sbag2
(g3
g4
(I86
VUSL
p350
V\u0421\u0432\u0435\u0434\u0435\u043d\u0438\u044f \u043e\u0431 \u0443\u0441\u043b\u0443\u0433\u0435
p351
I00
ttRp352
(dp353
g9
I00
sg10
g14
sg12
g350
sg11
I86
sg13
g351
sbag2
(g3
g4
(I87
VIDSERV
p354
V\u041d\u043e\u043c\u0435\u0440 \u0437\u0430\u043f\u0438\u0441\u0438 \u0432 \u0440\u0435\u0435\u0441\u0442\u0440\u0435 \u0443\u0441\u043b\u0443\u0433
p355
I01
ttRp356
(dp357
g9
I01
sg10
g14
sg12
g354
sg11
I87
sg13
g355
sbag2
(g3
g4
(I88
VDATE_IN
p358
V\u0414\u0430\u0442\u0430 \u043d\u0430\u0447\u0430\u043b\u0430 \u043e\u043a\u0430\u0437\u0430\u043d\u0438\u044f \u0443\u0441\u043b\u0443\u0433
p359
I01
ttRp360
(dp361
g9
I01
sg10
g14
sg12
g358
sg11
I88
sg13
g359
sbag2
(g3
g4
(I89
VDATE_OUT
p362
V\u0414\u0430\u0442\u0430 \u043e\u043a\u043e\u043d\u0447\u0430\u043d\u0438\u044f \u043e\u043a\u0430\u0437\u0430\u043d\u0438\u044f \u0443\u0441\u043b\u0443\u0433
p363
I01
ttRp364
(dp365
g9
I01
sg10
g14
sg12
g362
sg11
I89
sg13
g363
sbag2
(g3
g4
(I90
VDS
p366
V\u0414\u0438\u0430\u0433\u043d\u043e\u0437
p367
I01
ttRp368
(dp369
g9
I01
sg10
g14
sg12
g366
sg11
I90
sg13
g367
sbag2
(g3
g4
(I91
VCODE_USL
p370
V\u041a\u043e\u0434 \u0443\u0441\u043b\u0443\u0433\u0438
p371
I01
ttRp372
(dp373
g9
I01
sg10
g14
sg12
g370
sg11
I91
sg13
g371
sbag2
(g3
g4
(I92
VROL_USL
p374
V\u041a\u043e\u043b\u0438\u0447\u0435\u0441\u0442\u0432\u043e \u0443\u0441\u043b\u0443\u0433 (\u043a\u0440\u0430\u0442\u043d\u043e\u0441\u0442\u044c \u0443\u0441\u043b\u0443\u0433\u0438)
p375
I01
ttRp376
(dp377
g9
I01
sg10
g14
sg12
g374
sg11
I92
sg13
g375
sbag2
(g3
g4
(I93
VSUMV_USL
p378
V\u0421\u0442\u043e\u0438\u043c\u043e\u0441\u0442\u044c \u043c\u0435\u0434\u0438\u0446\u0438\u043d\u0441\u043a\u043e\u0439 \u0443\u0441\u043b\u0443\u0433\u0438 \u0432\u044b\u0441\u0442\u0430\u0432\u043b\u0435\u043d\u043d\u043e\u0439 \u043a \u043e\u043f\u043b\u0430\u0442\u0435 (\u0440\u0443\u0431.)
p379
I01
ttRp380
(dp381
g9
I01
sg10
g14
sg12
g378
sg11
I93
sg13
g379
sbag2
(g3
g4
(I94
VCODE_MD
p382
V\u041a\u043e\u0434 \u043c\u0435\u0434\u0438\u0446\u0438\u043d\u0441\u043a\u043e\u0433\u043e \u0440\u0430\u0431\u043e\u0442\u043d\u0438\u043a\u0430, \u043e\u043a\u0430\u0437\u0430\u0432\u0448\u0435\u0433\u043e \u043c\u0435\u0434\u0438\u0446\u0438\u043d\u0441\u043a\u0443\u044e \u0443\u0441\u043b\u0443\u0433\u0443
p383
I01
ttRp384
(dp385
g9
I01
sg10
g14
sg12
g382
sg11
I94
sg13
g383
sbag2
(g3
g4
(I95
VCOMENTU
p386
V\u0421\u043b\u0443\u0436\u0435\u0431\u043d\u043e\u0435 \u043f\u043e\u043b\u0435
p387
I01
ttRp388
(dp389
g9
I01
sg10
g14
sg12
g386
sg11
I95
sg13
g387
sbag2
(g3
g4
(I96
VCOMENTSL
p390
V\u0421\u043b\u0443\u0436\u0435\u0431\u043d\u043e\u0435 \u043f\u043e\u043b\u0435
p391
I01
ttRp392
(dp393
g9
I01
sg10
g14
sg12
g390
sg11
I96
sg13
g391
sbag2
(g3
g4
(I97
VKOL_USL
p394
V\u041a\u043e\u043b\u0438\u0447\u0435\u0441\u0442\u0432\u043e \u0443\u0441\u043b\u0443\u0433 (\u043a\u0440\u0430\u0442\u043d\u043e\u0441\u0442\u044c \u0443\u0441\u043b\u0443\u0433\u0438)
p395
I01
ttRp396
(dp397
g9
I01
sg10
g14
sg12
g394
sg11
I97
sg13
g395
sbag2
(g3
g4
(I98
VKOD_LPU
p398
V\u041a\u043e\u0434 \u043c\u0435\u0434\u0438\u0446\u0438\u043d\u0441\u043a\u043e\u0439 \u043e\u0440\u0433\u0430\u043d\u0438\u0437\u0430\u0446\u0438\u0438
p399
I01
ttRp400
(dp401
g9
I01
sg10
g14
sg12
g398
sg11
I98
sg13
g399
sbag2
(g3
g4
(I99
VDAT_SC
p402
V\u0414\u0430\u0442\u0430 \u043f\u0435\u0440\u0435\u0434\u0430\u0447\u0438 \u0441\u0447\u0435\u0442\u0430
p403
I01
ttRp404
(dp405
g9
I01
sg10
g14
sg12
g402
sg11
I99
sg13
g403
sbag2
(g3
g4
(I100
VVL
p406
V\u0412\u0438\u0434 \u043c\u0435\u0434\u0438\u0446\u0438\u043d\u0441\u043a\u043e\u0439 \u043e\u0440\u0433\u0430\u043d\u0438\u0437\u0430\u0446\u0438\u0438 (\u0442\u0438\u043f \u0441\u0447\u0435\u0442\u0430)
p407
I01
ttRp408
(dp409
g9
I01
sg10
g14
sg12
g406
sg11
I100
sg13
g407
sbag2
(g3
g4
(I101
VN_CH
p410
VN \u0441\u0447\u0435\u0442\u0430
p411
I01
ttRp412
(dp413
g9
I01
sg10
g14
sg12
g410
sg11
I101
sg13
g411
sbag2
(g3
g4
(I102
VN_NAPR
p414
VN \u043d\u0430\u043f\u0440\u0430\u0432\u043b\u0435\u043d\u0438\u044f, \u043d\u0430\u043f\u0440\u0430\u0432\u0438\u0432\u0448\u0435\u0435 \u0443\u0447\u0440\u0435\u0436\u0434\u0435\u043d\u0438\u0435 \u0438\u043b\u0438 \u043e\u0442\u043c\u0435\u0442\u043a\u0430 \u043e \u043f\u0440\u0438\u0435\u043c\u0435 \u043f\u043e \u0441\u043a.\u043f\u043e\u043c
p415
I01
ttRp416
(dp417
g9
I01
sg10
g14
sg12
g414
sg11
I102
sg13
g415
sbag2
(g3
g4
(I103
VDAT_VV
p418
V\u0414\u0430\u0442\u0430 \u043f\u043e\u0441\u0442\u0443\u043f\u043b\u0435\u043d\u0438\u044f
p419
I01
ttRp420
(dp421
g9
I01
sg10
g14
sg12
g418
sg11
I103
sg13
g419
sbag2
(g3
g4
(I104
VDAT_PR
p422
V\u0414\u0430\u0442\u0430 \u0432\u044b\u043f\u0438\u0441\u043a\u0438
p423
I01
ttRp424
(dp425
g9
I01
sg10
g14
sg12
g422
sg11
I104
sg13
g423
sbag2
(g3
g4
(I105
VSER_POL
p426
V\u0421\u0435\u0440\u0438\u044f \u043f\u043e\u043b\u0438\u0441\u0430
p427
I01
ttRp428
(dp429
g9
I01
sg10
g14
sg12
g426
sg11
I105
sg13
g427
sbag2
(g3
g4
(I106
VNOM_POL
p430
V\u041d\u043e\u043c\u0435\u0440 \u043f\u043e\u043b\u0438\u0441\u0430
p431
I01
ttRp432
(dp433
g9
I01
sg10
g14
sg12
g430
sg11
I106
sg13
g431
sbag2
(g3
g4
(I107
VFAMIL
p434
V\u0424\u0430\u043c\u0438\u043b\u0438\u044f
p435
I01
ttRp436
(dp437
g9
I01
sg10
g14
sg12
g434
sg11
I107
sg13
g435
sbag2
(g3
g4
(I108
VIMYA
p438
V\u0418\u043c\u044f
p439
I01
ttRp440
(dp441
g9
I01
sg10
g14
sg12
g438
sg11
I108
sg13
g439
sbag2
(g3
g4
(I109
VKOD_F
p442
V\u041a\u043e\u0434 \u0441\u0442\u0440\u0430\u0445\u043e\u0432\u043e\u0439 \u043a\u043e\u043c\u043f\u0430\u043d\u0438\u0438
p443
I01
ttRp444
(dp445
g9
I01
sg10
g14
sg12
g442
sg11
I109
sg13
g443
sbag2
(g3
g4
(I110
VPOL
p446
V\u041f\u043e\u043b
p447
I01
ttRp448
(dp449
g9
I01
sg10
g14
sg12
g446
sg11
I110
sg13
g447
sbag2
(g3
g4
(I111
VD_R
p450
V\u0414\u0430\u0442\u0430 \u0440\u043e\u0436\u0434\u0435\u043d\u0438\u044f
p451
I01
ttRp452
(dp453
g9
I01
sg10
g14
sg12
g450
sg11
I111
sg13
g451
sbag2
(g3
g4
(I112
VRAION
p454
V\u0420\u0430\u0439\u043e\u043d
p455
I01
ttRp456
(dp457
g9
I01
sg10
g14
sg12
g454
sg11
I112
sg13
g455
sbag2
(g3
g4
(I113
VNAS_P
p458
V\u041d\u0430\u0441\u0435\u043b\u0435\u043d\u043d\u044b\u0439 \u043f\u0443\u043d\u043a\u0442
p459
I01
ttRp460
(dp461
g9
I01
sg10
g14
sg12
g458
sg11
I113
sg13
g459
sbag2
(g3
g4
(I114
VUL
p462
V\u0423\u043b\u0438\u0446\u0430
p463
I01
ttRp464
(dp465
g9
I01
sg10
g14
sg12
g462
sg11
I114
sg13
g463
sbag2
(g3
g4
(I115
VDOM
p466
V\u0414\u043e\u043c
p467
I01
ttRp468
(dp469
g9
I01
sg10
g14
sg12
g466
sg11
I115
sg13
g467
sbag2
(g3
g4
(I116
VKV
p470
V\u041a\u0432\u0430\u0440\u0442\u0438\u0440\u0430
p471
I01
ttRp472
(dp473
g9
I01
sg10
g14
sg12
g470
sg11
I116
sg13
g471
sbag2
(g3
g4
(I117
VKATEGOR
p474
V\u041a\u0430\u0442\u0435\u0433\u043e\u0440\u0438\u044f
p475
I01
ttRp476
(dp477
g9
I01
sg10
g14
sg12
g474
sg11
I117
sg13
g475
sbag2
(g3
g4
(I118
VMES_R
p478
V\u041c\u0435\u0441\u0442\u043e \u0440\u0430\u0431\u043e\u0442\u044b
p479
I01
ttRp480
(dp481
g9
I01
sg10
g14
sg12
g478
sg11
I118
sg13
g479
sbag2
(g3
g4
(I119
VKOD_PR
p482
V\u0420\u0435\u0433\u0438\u0441\u0442\u0440\u0430\u0446\u0438\u043e\u043d\u043d\u044b\u0439 \u043d\u043e\u043c\u0435\u0440 \u043f\u0440\u0435\u0434\u043f\u0440\u0438\u044f\u0442\u0438\u044f
p483
I01
ttRp484
(dp485
g9
I01
sg10
g14
sg12
g482
sg11
I119
sg13
g483
sbag2
(g3
g4
(I120
VOTD
p486
V\u041a\u043e\u0434 \u043e\u0442\u0434\u0435\u043b\u0435\u043d\u0438\u044f \u0441\u0442\u0430\u0446\u0438\u043e\u043d\u0430\u0440\u0430
p487
I01
ttRp488
(dp489
g9
I01
sg10
g14
sg12
g486
sg11
I120
sg13
g487
sbag2
(g3
g4
(I121
VN_KART
p490
V\u041d\u043e\u043c\u0435\u0440 \u0438\u0441\u0442\u043e\u0440\u0438\u0438 \u0431\u043e\u043b\u0435\u0437\u043d\u0438 \u0438\u043b\u0438 \u043d\u043e\u043c\u0435\u0440 \u043a\u0430\u0440\u0442\u044b
p491
I01
ttRp492
(dp493
g9
I01
sg10
g14
sg12
g490
sg11
I121
sg13
g491
sbag2
(g3
g4
(I122
VDIA_O
p494
V\u0414\u0438\u0430\u0433\u043d\u043e\u0437 \u043e\u0441\u043d\u043e\u0432\u043d\u043e\u0439
p495
I01
ttRp496
(dp497
g9
I01
sg10
g14
sg12
g494
sg11
I122
sg13
g495
sbag2
(g3
g4
(I123
VDOP_D
p498
V\u0414\u043e\u043f\u043e\u043b\u043d\u0435\u043d\u0438\u0435 \u043a \u043e\u0441\u043d\u043e\u0432\u043d\u043e\u043c\u0443 \u0434\u0438\u0430\u0433\u043d\u043e\u0437\u0443
p499
I01
ttRp500
(dp501
g9
I01
sg10
g14
sg12
g498
sg11
I123
sg13
g499
sbag2
(g3
g4
(I124
VDIA_S
p502
V\u0414\u0438\u0430\u0433\u043d\u043e\u0437 \u0441\u043e\u043f\u0443\u0442\u0441\u0442\u0432\u0443\u044e\u0449\u0438\u0439 1
p503
I01
ttRp504
(dp505
g9
I01
sg10
g14
sg12
g502
sg11
I124
sg13
g503
sbag2
(g3
g4
(I125
VDOP_S
p506
V\u0414\u043e\u043f\u043e\u043b\u043d\u0435\u043d\u0438\u0435 \u043a \u0441\u043e\u043f\u0443\u0442\u0441\u0442\u0432\u0443\u044e\u0449\u0435\u043c\u0443 \u0434\u0438\u0430\u0433\u043d\u043e\u0437\u0443 1
p507
I01
ttRp508
(dp509
g9
I01
sg10
g14
sg12
g506
sg11
I125
sg13
g507
sbag2
(g3
g4
(I126
VDIA_S1
p510
V\u0414\u0438\u0430\u0433\u043d\u043e\u0437 \u0441\u043e\u043f\u0443\u0442\u0441\u0442\u0432\u0443\u044e\u0449\u0438\u0439 2
p511
I01
ttRp512
(dp513
g9
I01
sg10
g14
sg12
g510
sg11
I126
sg13
g511
sbag2
(g3
g4
(I127
VDOP_S1
p514
V\u0414\u043e\u043f\u043e\u043b\u043d\u0435\u043d\u0438\u0435 \u043a \u0441\u043e\u043f\u0443\u0442\u0441\u0442\u0432\u0443\u044e\u0449\u0435\u043c\u0443 \u0434\u0438\u0430\u0433\u043d\u043e\u0437\u0443 2
p515
I01
ttRp516
(dp517
g9
I01
sg10
g14
sg12
g514
sg11
I127
sg13
g515
sbag2
(g3
g4
(I128
VOSL
p518
V\u0414\u0438\u0430\u0433\u043d\u043e\u0437 \u043e\u0441\u043b\u043e\u0436\u043d\u0435\u043d\u0438\u044f
p519
I01
ttRp520
(dp521
g9
I01
sg10
g14
sg12
g518
sg11
I128
sg13
g519
sbag2
(g3
g4
(I129
VDOP_OSL
p522
V\u0414\u043e\u043f\u043e\u043b\u043d\u0435\u043d\u0438\u0435 \u043a \u0434\u0438\u0430\u0433\u043d\u043e\u0437\u0443 \u043e\u0441\u043b\u043e\u0436\u043d\u0435\u043d\u0438\u044f
p523
I01
ttRp524
(dp525
g9
I01
sg10
g14
sg12
g522
sg11
I129
sg13
g523
sbag2
(g3
g4
(I130
VKSG_MS
p526
V\u0428\u0440\u0438\u0444\u0442 \u041a\u0421\u0413
p527
I01
ttRp528
(dp529
g9
I01
sg10
g14
sg12
g526
sg11
I130
sg13
g527
sbag2
(g3
g4
(I131
VDL_LEC
p530
V\u041f\u0440\u043e\u0434\u043e\u043b\u0436\u0438\u0442\u0435\u043b\u044c\u043d\u043e\u0441\u0442\u044c \u043b\u0435\u0447\u0435\u043d\u0438\u044f
p531
I01
ttRp532
(dp533
g9
I01
sg10
g14
sg12
g530
sg11
I131
sg13
g531
sbag2
(g3
g4
(I132
VSL
p534
V\u0421\u043b\u0443\u0447\u0430\u0439 \u043e\u0431\u0441\u043b\u0443\u0436\u0438\u0432\u0430\u043d\u0438\u044f
p535
I01
ttRp536
(dp537
g9
I01
sg10
g14
sg12
g534
sg11
I132
sg13
g535
sbag2
(g3
g4
(I133
VISH_LEC
p538
V\u0418\u0441\u0445\u043e\u0434 \u043b\u0435\u0447\u0435\u043d\u0438\u044f
p539
I01
ttRp540
(dp541
g9
I01
sg10
g14
sg12
g538
sg11
I133
sg13
g539
sbag2
(g3
g4
(I134
VPR_NZ
p542
V\u041f\u0440\u0438\u0447\u0438\u043d\u044b \u043d\u0435\u0437\u0430\u043a\u043e\u043d\u0447\u0435\u043d\u043d\u043e\u0441\u0442\u0438 \u0441\u043b\u0443\u0447\u0430\u044f
p543
I01
ttRp544
(dp545
g9
I01
sg10
g14
sg12
g542
sg11
I134
sg13
g543
sbag2
(g3
g4
(I135
VSTOIM
p546
V\u0421\u0442\u043e\u0438\u043c\u043e\u0441\u0442\u044c \u043b\u0435\u0447\u0435\u043d\u0438\u044f
p547
I01
ttRp548
(dp549
g9
I01
sg10
g14
sg12
g546
sg11
I135
sg13
g547
sbag2
(g3
g4
(I136
VKOD_VR
p550
V\u041a\u043e\u0434 \u043b\u0435\u0447\u0430\u0449\u0435\u0433\u043e \u0432\u0440\u0430\u0447\u0430
p551
I01
ttRp552
(dp553
g9
I01
sg10
g14
sg12
g550
sg11
I136
sg13
g551
sbag2
(g3
g4
(I137
VKOD_O
p554
V\u041a\u043e\u0434 \u0443\u0441\u043b\u0443\u0433\u0438, \u043e\u0431\u0441\u043b\u0435\u0434\u043e\u0432\u0430\u043d\u0438\u044f, \u043e\u043f\u0435\u0440\u0430\u0446\u0438\u0438 \u0432 \u043c\u0435\u0434\u0438\u0446\u0438\u043d\u0441\u043a\u043e\u0439 \u043e\u0440\u0433\u0430\u043d\u0438\u0437\u0430\u0446\u0438\u0438
p555
I01
ttRp556
(dp557
g9
I01
sg10
g14
sg12
g554
sg11
I137
sg13
g555
sbag2
(g3
g4
(I138
VN_OPER
p558
V\u041d\u0430\u0438\u043c\u0435\u043d\u043e\u0432\u0430\u043d\u0438\u0435 \u0443\u0441\u043b\u0443\u0433\u0438, \u043e\u0431\u0441\u043b\u0435\u0434\u043e\u0432\u0430\u043d\u0438\u044f \u043e\u043f\u0435\u0440\u0430\u0446\u0438\u0438
p559
I01
ttRp560
(dp561
g9
I01
sg10
g14
sg12
g558
sg11
I138
sg13
g559
sbag2
(g3
g4
(I139
VKOD_TSK
p562
V\u041a\u043e\u0434 \u0442\u0435\u0440\u0440\u0438\u0442\u043e\u0440\u0438\u0438 \u0421\u041c\u041e
p563
I01
ttRp564
(dp565
g9
I01
sg10
g14
sg12
g562
sg11
I139
sg13
g563
sbag2
(g3
g4
(I140
VNAMCMO
p566
V\u041d\u0430\u0438\u043c\u0435\u043d\u043e\u0432\u0430\u043d\u0438\u0435 \u0421\u041c\u041e \u0442\u0435\u0440\u0440\u0438\u0442\u043e\u0440\u0438\u0438 \u0420\u0424
p567
I01
ttRp568
(dp569
g9
I01
sg10
g14
sg12
g566
sg11
I140
sg13
g567
sbag2
(g3
g4
(I141
VKOD_DOK
p570
V\u0412\u0438\u0434 \u0434\u043e\u043a\u0443\u043c\u0435\u043d\u0442\u0430
p571
I01
ttRp572
(dp573
g9
I01
sg10
g14
sg12
g570
sg11
I141
sg13
g571
sbag2
(g3
g4
(I142
VSER_DOK
p574
V\u0421\u0435\u0440\u0438\u044f \u0434\u043e\u043a\u0443\u043c\u0435\u043d\u0442\u0430
p575
I01
ttRp576
(dp577
g9
I01
sg10
g14
sg12
g574
sg11
I142
sg13
g575
sbag2
(g3
g4
(I143
VNOM_DOK
p578
V\u041d\u043e\u043c\u0435\u0440 \u0434\u043e\u043a\u0443\u043c\u0435\u043d\u0442\u0430
p579
I01
ttRp580
(dp581
g9
I01
sg10
g14
sg12
g578
sg11
I143
sg13
g579
sbag2
(g3
g4
(I144
VVMP
p582
V\u0412\u0438\u0434 \u043c\u0435\u0434\u0438\u0446\u0438\u043d\u0441\u043a\u043e\u0439 \u043f\u043e\u043c\u043e\u0449\u0438
p583
I01
ttRp584
(dp585
g9
I01
sg10
g14
sg12
g582
sg11
I144
sg13
g583
sbag2
(g3
g4
(I145
VDAT_BLVN
p586
V\u0414\u0430\u0442\u0430 \u0432\u044b\u0434\u0430\u0447\u0438 \u043b\u0438\u0441\u0442\u043a\u0430 \u0432\u0440\u0435\u043c\u0435\u043d\u043d\u043e\u0439 \u043d\u0435\u0442\u0440\u0443\u0434\u043e\u0441\u043f\u043e\u0441\u043e\u0431\u043d\u043e\u0441\u0442\u0438
p587
I01
ttRp588
(dp589
g9
I01
sg10
g14
sg12
g586
sg11
I145
sg13
g587
sbag2
(g3
g4
(I146
VDAT_ELVN
p590
V\u0414\u0430\u0442\u0430 \u0437\u0430\u043a\u0440\u044b\u0442\u0438\u044f \u043b\u0438\u0441\u0442\u0430 \u0432\u0440\u0435\u043c\u0435\u043d\u043d\u043e\u0439 \u043d\u0435\u0442\u0440\u0443\u0434\u043e\u0441\u043f\u043e\u0441\u043e\u0431\u043d\u043e\u0441\u0442\u0438
p591
I01
ttRp592
(dp593
g9
I01
sg10
g14
sg12
g590
sg11
I146
sg13
g591
sbag2
(g3
g4
(I147
VDAMAGE
p594
V\u041f\u0440\u0438\u0437\u043d\u0430\u043a \u0442\u0440\u0430\u0432\u043c\u0430\u0442\u0438\u0437\u043c\u0430 \u043d\u0430 \u043f\u0440\u043e\u0438\u0437\u0432\u043e\u0434\u0441\u0442\u0432\u0435
p595
I01
ttRp596
(dp597
g9
I01
sg10
g14
sg12
g594
sg11
I147
sg13
g595
sbag2
(g3
g4
(I148
VDATA_NS
p598
V\u0414\u0430\u0442\u0430 \u043d\u0435\u0441\u0447\u0430\u0441\u0442\u043d\u043e\u0433\u043e \u0441\u043b\u0443\u0447\u0430\u044f \u043d\u0430 \u043f\u0440\u043e\u0438\u0437\u0432\u043e\u0434\u0441\u0442\u0432\u0435
p599
I01
ttRp600
(dp601
g9
I01
sg10
g14
sg12
g598
sg11
I148
sg13
g599
sbag2
(g3
g4
(I149
VKOD_T
p602
V\u041a\u043e\u0434 \u0442\u0435\u0440\u0440\u0438\u0442\u043e\u0440\u0438\u0438 \u0420\u0424
p603
I01
ttRp604
(dp605
g9
I01
sg10
g14
sg12
g602
sg11
I149
sg13
g603
sbag2
(g3
g4
(I150
VKC
p606
V\u0426\u0435\u043b\u044c \u043e\u0431\u0440\u0430\u0449\u0435\u043d\u0438\u044f
p607
I01
ttRp608
(dp609
g9
I01
sg10
g14
sg12
g606
sg11
I150
sg13
g607
sbag2
(g3
g4
(I151
VKOL_POS
p610
V\u041a\u043e\u043b\u0438\u0447\u0435\u0441\u0442\u0432\u043e \u043f\u043e\u0441\u0435\u0449\u0435\u043d\u0438\u0439
p611
I01
ttRp612
(dp613
g9
I01
sg10
g14
sg12
g610
sg11
I151
sg13
g611
sbag2
(g3
g4
(I152
VPOS_D
p614
V\u041a\u043e\u043b\u0438\u0447\u0435\u0441\u0442\u0432\u043e \u043f\u043e\u0441\u0435\u0449\u0435\u043d\u0438\u0439 \u043d\u0430 \u0434\u043e\u043c\u0443
p615
I01
ttRp616
(dp617
g9
I01
sg10
g14
sg12
g614
sg11
I152
sg13
g615
sbag2
(g3
g4
(I153
VS_VR
p618
V\u0421\u043f\u0435\u0446\u0438\u0430\u043b\u044c\u043d\u043e\u0441\u0442\u044c \u0432\u0440\u0430\u0447\u0430
p619
I01
ttRp620
(dp621
g9
I01
sg10
g14
sg12
g618
sg11
I153
sg13
g619
sbag2
(g3
g4
(I154
VNOM_SL
p622
V\u041d\u043e\u043c\u0435\u0440 \u0441\u043b\u0443\u0447\u0430\u044f \u043e\u0431\u0441\u043b\u0443\u0436\u0438\u0432\u0430\u043d\u0438\u044f
p623
I01
ttRp624
(dp625
g9
I01
sg10
g14
sg12
g622
sg11
I154
sg13
g623
sbag2
(g3
g4
(I155
VVNOV_D
p626
V\u0434\u0430\u043d\u043d\u044b\u0435 \u043e \u0432\u0435\u0441\u0435 \u0440\u0435\u0431\u0435\u043d\u043a\u0430 \u043f\u0440\u0438 \u0440\u043e\u0436\u0434\u0435\u043d\u0438\u0438
p627
I01
ttRp628
(dp629
g9
I01
sg10
g14
sg12
g626
sg11
I155
sg13
g627
sbag2
(g3
g4
(I156
VFOR_POM
p630
V\u0434\u0430\u043d\u043d\u044b\u0435 \u043e \u0444\u043e\u0440\u043c\u0435 \u043e\u043a\u0430\u0437\u0430\u043d\u0438\u044f \u043f\u043e\u043c\u043e\u0449\u0438
p631
I01
ttRp632
(dp633
g9
I01
sg10
g14
sg12
g630
sg11
I156
sg13
g631
sba.