(lp1
ccopy_reg
_reconstructor
p2
(csqlalchemy.util._collections
KeyedTuple
p3
c__builtin__
tuple
p4
(L1L
VPERS_LIST
p5
VPERS_LIST
p6
I00
ttRp7
(dp8
S'is_leaf'
p9
I00
sS'_labels'
p10
(S'id'
p11
S'code'
p12
S'name'
p13
g9
tp14
sg12
g5
sg11
L1L
sg13
g6
sbag2
(g3
g4
(L2L
VZGLV
p15
V\u0417\u0430\u0433\u043e\u043b\u043e\u0432\u043e\u043a \u0444\u0430\u0439\u043b\u0430
p16
I00
ttRp17
(dp18
g9
I00
sg10
g14
sg12
g15
sg11
L2L
sg13
g16
sbag2
(g3
g4
(L3L
VVERSION
p19
V\u0412\u0435\u0440\u0441\u0438\u044f \u0432\u0437\u0430\u0438\u043c\u043e\u0434\u0435\u0439\u0441\u0442\u0432\u0438\u044f
p20
I01
ttRp21
(dp22
g9
I01
sg10
g14
sg12
g19
sg11
L3L
sg13
g20
sbag2
(g3
g4
(L4L
VDATA
p23
V\u0414\u0430\u0442\u0430
p24
I01
ttRp25
(dp26
g9
I01
sg10
g14
sg12
g23
sg11
L4L
sg13
g24
sbag2
(g3
g4
(L5L
VFILENAME
p27
V\u0418\u043c\u044f \u0444\u0430\u0439\u043b\u0430
p28
I01
ttRp29
(dp30
g9
I01
sg10
g14
sg12
g27
sg11
L5L
sg13
g28
sbag2
(g3
g4
(L6L
VFILENAME1
p31
V\u0418\u043c\u044f \u043e\u0441\u043d\u043e\u0432\u043d\u043e\u0433\u043e \u0444\u0430\u0439\u043b\u0430
p32
I01
ttRp33
(dp34
g9
I01
sg10
g14
sg12
g31
sg11
L6L
sg13
g32
sbag2
(g3
g4
(L7L
VPERS
p35
V\u0414\u0430\u043d\u043d\u044b\u0435
p36
I00
ttRp37
(dp38
g9
I00
sg10
g14
sg12
g35
sg11
L7L
sg13
g36
sbag2
(g3
g4
(L8L
VFAM
p39
V\u0424\u0430\u043c\u0438\u043b\u0438\u044f \u043f\u0430\u0446\u0438\u0435\u043d\u0442\u0430
p40
I01
ttRp41
(dp42
g9
I01
sg10
g14
sg12
g39
sg11
L8L
sg13
g40
sbag2
(g3
g4
(L9L
VIM
p43
V\u0418\u043c\u044f \u043f\u0430\u0446\u0438\u0435\u043d\u0442\u0430
p44
I01
ttRp45
(dp46
g9
I01
sg10
g14
sg12
g43
sg11
L9L
sg13
g44
sbag2
(g3
g4
(L10L
VOT
p47
V\u041e\u0442\u0447\u0435\u0441\u0442\u0432\u043e \u043f\u0430\u0446\u0438\u0435\u043d\u0442\u0430
p48
I01
ttRp49
(dp50
g9
I01
sg10
g14
sg12
g47
sg11
L10L
sg13
g48
sbag2
(g3
g4
(L11L
VW
V\u041f\u043e\u043b \u043f\u0430\u0446\u0438\u0435\u043d\u0442\u0430
p51
I01
ttRp52
(dp53
g9
I01
sg10
g14
sg12
VW
sg11
L11L
sg13
g51
sbag2
(g3
g4
(L12L
VDR
p54
V\u0414\u0430\u0442\u0430 \u0440\u043e\u0436\u0434\u0435\u043d\u0438\u044f \u043f\u0430\u0446\u0438\u0435\u043d\u0442\u0430
p55
I01
ttRp56
(dp57
g9
I01
sg10
g14
sg12
g54
sg11
L12L
sg13
g55
sbag2
(g3
g4
(L13L
VFAM_P
p58
V\u0424\u0430\u043c\u0438\u043b\u0438\u044f \u043f\u0440\u0435\u0434\u0441\u0442\u0430\u0432\u0438\u0442\u0435\u043b\u044f \u043f\u0430\u0446\u0438\u0435\u043d\u0442\u0430
p59
I01
ttRp60
(dp61
g9
I01
sg10
g14
sg12
g58
sg11
L13L
sg13
g59
sbag2
(g3
g4
(L14L
VIM_P
p62
V\u0418\u043c\u044f \u043f\u0440\u0435\u0434\u0441\u0442\u0430\u0432\u0438\u0442\u0435\u043b\u044f \u043f\u0430\u0446\u0438\u0435\u043d\u0442\u0430
p63
I01
ttRp64
(dp65
g9
I01
sg10
g14
sg12
g62
sg11
L14L
sg13
g63
sbag2
(g3
g4
(L15L
VOT_P
p66
V\u041e\u0442\u0447\u0435\u0441\u0442\u0432\u043e \u043f\u0440\u0435\u0434\u0441\u0442\u0430\u0432\u0438\u0442\u0435\u043b\u044f \u043f\u0430\u0446\u0438\u0435\u043d\u0442\u0430
p67
I01
ttRp68
(dp69
g9
I01
sg10
g14
sg12
g66
sg11
L15L
sg13
g67
sbag2
(g3
g4
(L16L
VW_P
p70
V\u041f\u043e\u043b \u043f\u0440\u0435\u0434\u0441\u0442\u0430\u0432\u0438\u0442\u0435\u043b\u044f \u043f\u0430\u0446\u0438\u0435\u043d\u0442\u0430
p71
I01
ttRp72
(dp73
g9
I01
sg10
g14
sg12
g70
sg11
L16L
sg13
g71
sbag2
(g3
g4
(L17L
VDR_P
p74
V\u0414\u0430\u0442\u0430 \u0440\u043e\u0436\u0434\u0435\u043d\u0438\u044f \u043f\u0440\u0435\u0434\u0441\u0442\u0430\u0432\u0438\u0442\u0435\u043b\u044f \u043f\u0430\u0446\u0438\u0435\u043d\u0442\u0430
p75
I01
ttRp76
(dp77
g9
I01
sg10
g14
sg12
g74
sg11
L17L
sg13
g75
sbag2
(g3
g4
(L18L
VMR
p78
V\u041c\u0435\u0441\u0442\u043e \u0440\u043e\u0436\u0434\u0435\u043d\u0438\u044f \u043f\u0440\u0435\u0434\u0441\u0442\u0430\u0432\u0438\u0442\u0435\u043b\u044f \u0438\u043b\u0438 \u043f\u0430\u0446\u0438\u0435\u043d\u0442\u0430
p79
I01
ttRp80
(dp81
g9
I01
sg10
g14
sg12
g78
sg11
L18L
sg13
g79
sbag2
(g3
g4
(L19L
VDOCTYPE
p82
V\u0422\u0438\u043f \u0434\u043e\u043a\u0443\u043c\u0435\u043d\u0442\u0430, \u0443\u0434\u043e\u0441\u0442\u043e\u0432\u0435\u0440\u044f\u044e\u0449\u0435\u0433\u043e \u043b\u0438\u0447\u043d\u043e\u0441\u0442\u044c \u043f\u0430\u0446\u0438\u0435\u043d\u0442\u0430 \u0438\u043b\u0438 \u043f\u0440\u0435\u0434\u0441\u0442\u0430\u0432\u0438\u0442\u0435\u043b\u044f
p83
I01
ttRp84
(dp85
g9
I01
sg10
g14
sg12
g82
sg11
L19L
sg13
g83
sbag2
(g3
g4
(L20L
VDOCSER
p86
V\u0421\u0435\u0440\u0438\u044f \u0434\u043e\u043a\u0443\u043c\u0435\u043d\u0442\u0430, \u0443\u0434\u043e\u0441\u0442\u043e\u0432\u0435\u0440\u044f\u044e\u0449\u0435\u0433\u043e \u043b\u0438\u0447\u043d\u043e\u0441\u0442\u044c \u043f\u0430\u0446\u0438\u0435\u043d\u0442\u0430 \u0438\u043b\u0438 \u043f\u0440\u0435\u0434\u0441\u0442\u0430\u0432\u0438\u0442\u0435\u043b\u044f
p87
I01
ttRp88
(dp89
g9
I01
sg10
g14
sg12
g86
sg11
L20L
sg13
g87
sbag2
(g3
g4
(L21L
VDOCNUM
p90
V\u041d\u043e\u043c\u0435\u0440 \u0434\u043e\u043a\u0443\u043c\u0435\u043d\u0442\u0430, \u0443\u0434\u043e\u0441\u0442\u043e\u0432\u0435\u0440\u044f\u044e\u0449\u0435\u0433\u043e \u043b\u0438\u0447\u043d\u043e\u0441\u0442\u044c \u043f\u0430\u0446\u0438\u0435\u043d\u0442\u0430 \u0438\u043b\u0438 \u043f\u0440\u0435\u0434\u0441\u0442\u0430\u0432\u0438\u0442\u0435\u043b\u044f
p91
I01
ttRp92
(dp93
g9
I01
sg10
g14
sg12
g90
sg11
L21L
sg13
g91
sbag2
(g3
g4
(L22L
VSNILS
p94
V\u0421\u041d\u0418\u041b\u0421
p95
I01
ttRp96
(dp97
g9
I01
sg10
g14
sg12
g94
sg11
L22L
sg13
g95
sbag2
(g3
g4
(L23L
VOKATOP
p98
V\u041a\u043e\u0434 \u043c\u0435\u0441\u0442\u0430 \u043f\u0440\u0435\u0431\u044b\u0432\u0430\u043d\u0438\u044f \u043f\u043e \u041e\u041a\u0410\u0422\u041e
p99
I01
ttRp100
(dp101
g9
I01
sg10
g14
sg12
g98
sg11
L23L
sg13
g99
sbag2
(g3
g4
(L24L
VCOMENTP
p102
V\u0421\u043b\u0443\u0436\u0435\u0431\u043d\u043e\u0435 \u043f\u043e\u043b\u0435
p103
I01
ttRp104
(dp105
g9
I01
sg10
g14
sg12
g102
sg11
L24L
sg13
g103
sbag2
(g3
g4
(L25L
VID_PAC
p106
V\u041a\u043e\u0434 \u0437\u0430\u043f\u0438\u0441\u0438 \u043e \u043f\u0430\u0446\u0438\u0435\u043d\u0442\u0435
p107
I01
ttRp108
(dp109
g9
I01
sg10
g14
sg12
g106
sg11
L25L
sg13
g107
sbag2
(g3
g4
(L26L
VOKATOG
p110
V\u041a\u043e\u0434 \u043c\u0435\u0441\u0442\u0430 \u0436\u0438\u0442\u0435\u043b\u044c\u0441\u0442\u0432\u0430 \u043f\u043e \u041e\u041a\u0410\u0422\u041e
p111
I01
ttRp112
(dp113
g9
I01
sg10
g14
sg12
g110
sg11
L26L
sg13
g111
sbag2
(g3
g4
(L27L
VZL_LIST
p114
VZL_LIST
p115
I00
ttRp116
(dp117
g9
I00
sg10
g14
sg12
g114
sg11
L27L
sg13
g115
sbag2
(g3
g4
(L28L
VZGL
p118
V\u0417\u0430\u0433\u043e\u043b\u043e\u0432\u043e\u043a \u0444\u0430\u0439\u043b\u0430
p119
I00
ttRp120
(dp121
g9
I00
sg10
g14
sg12
g118
sg11
L28L
sg13
g119
sbag2
(g3
g4
(L29L
VSCHET
p122
V\u0421\u0447\u0435\u0442
p123
I00
ttRp124
(dp125
g9
I00
sg10
g14
sg12
g122
sg11
L29L
sg13
g123
sbag2
(g3
g4
(L30L
VCODE
p126
V\u041a\u043e\u0434 \u0437\u0430\u043f\u0438\u0441\u0438 \u0441\u0447\u0435\u0442\u0430
p127
I01
ttRp128
(dp129
g9
I01
sg10
g14
sg12
g126
sg11
L30L
sg13
g127
sbag2
(g3
g4
(L31L
VCODE_MO
p130
V\u0420\u0435\u0435\u0441\u0442\u0440\u043e\u0432\u044b\u0439 \u043d\u043e\u043c\u0435\u0440 \u043c\u0435\u0434\u0438\u0446\u0438\u043d\u0441\u043a\u043e\u0439 \u043e\u0440\u0433\u0430\u043d\u0438\u0437\u0430\u0446\u0438\u0438
p131
I01
ttRp132
(dp133
g9
I01
sg10
g14
sg12
g130
sg11
L31L
sg13
g131
sbag2
(g3
g4
(L32L
VYEAR
p134
V\u041e\u0442\u0447\u0435\u0442\u043d\u044b\u0439 \u0433\u043e\u0434
p135
I01
ttRp136
(dp137
g9
I01
sg10
g14
sg12
g134
sg11
L32L
sg13
g135
sbag2
(g3
g4
(L33L
VMONTH
p138
V\u041e\u0442\u0447\u0435\u0442\u043d\u044b\u0439 \u043c\u0435\u0441\u044f\u0446
p139
I01
ttRp140
(dp141
g9
I01
sg10
g14
sg12
g138
sg11
L33L
sg13
g139
sbag2
(g3
g4
(L34L
VNSCHET
p142
V\u041d\u043e\u043c\u0435\u0440 \u0441\u0447\u0435\u0442\u0430
p143
I01
ttRp144
(dp145
g9
I01
sg10
g14
sg12
g142
sg11
L34L
sg13
g143
sbag2
(g3
g4
(L35L
VDSCHET
p146
V\u0414\u0430\u0442\u0430 \u0432\u044b\u0441\u0442\u0430\u0432\u043b\u0435\u043d\u0438\u044f \u0441\u0447\u0435\u0442\u0430
p147
I01
ttRp148
(dp149
g9
I01
sg10
g14
sg12
g146
sg11
L35L
sg13
g147
sbag2
(g3
g4
(L36L
VPLAT
p150
V\u041f\u043b\u0430\u0442\u0435\u043b\u044c\u0449\u0438\u043a, \u0420\u0435\u0435\u0441\u0442\u0440\u043e\u0432\u044b\u0439 \u043d\u043e\u043c\u0435\u0440 \u0421\u041c\u041e
p151
I01
ttRp152
(dp153
g9
I01
sg10
g14
sg12
g150
sg11
L36L
sg13
g151
sbag2
(g3
g4
(L37L
VSUMMAV
p154
V\u0421\u0443\u043c\u043c\u0430 \u041c\u041e, \u0432\u044b\u0441\u0442\u0430\u0432\u043b\u0435\u043d\u043d\u0430\u044f \u043d\u0430 \u043e\u043f\u043b\u0430\u0442\u0443
p155
I01
ttRp156
(dp157
g9
I01
sg10
g14
sg12
g154
sg11
L37L
sg13
g155
sbag2
(g3
g4
(L38L
VCOMENTS
p158
V\u0421\u043b\u0443\u0436\u0435\u0431\u043d\u043e\u0435 \u043f\u043e\u043b\u0435 \u043a \u0441\u0447\u0435\u0442\u0443
p159
I01
ttRp160
(dp161
g9
I01
sg10
g14
sg12
g158
sg11
L38L
sg13
g159
sbag2
(g3
g4
(L39L
VSUMMAP
p162
V\u0421\u0443\u043c\u043c\u0430, \u043f\u0440\u0438\u043d\u044f\u0442\u0430\u044f \u043a \u043e\u043f\u043b\u0430\u0442\u0430 \u0421\u041c\u041e(\u0422\u0424\u041e\u041c\u0421)
p163
I01
ttRp164
(dp165
g9
I01
sg10
g14
sg12
g162
sg11
L39L
sg13
g163
sbag2
(g3
g4
(L40L
VSANK_MEK
p166
V\u0424\u0438\u043d\u0430\u043d\u0441\u043e\u0432\u044b\u0435 \u0441\u0430\u043d\u043a\u0446\u0438\u0438 (\u041c\u042d\u041a)
p167
I01
ttRp168
(dp169
g9
I01
sg10
g14
sg12
g166
sg11
L40L
sg13
g167
sbag2
(g3
g4
(L41L
VSANK_MEE
p170
V\u0424\u0438\u043d\u0430\u043d\u0441\u043e\u0432\u044b\u0435 \u0441\u0430\u043d\u043a\u0446\u0438\u0438 (\u041c\u042d\u042d)
p171
I01
ttRp172
(dp173
g9
I01
sg10
g14
sg12
g170
sg11
L41L
sg13
g171
sbag2
(g3
g4
(L42L
VSANK_EKMP
p174
V\u0424\u0438\u043d\u0430\u043d\u0441\u043e\u0432\u044b\u0435 \u0441\u0430\u043d\u043a\u0446\u0438\u0438 (\u042d\u041a\u041c\u041f)
p175
I01
ttRp176
(dp177
g9
I01
sg10
g14
sg12
g174
sg11
L42L
sg13
g175
sbag2
(g3
g4
(L43L
VZAP
p178
V\u0417\u0430\u043f\u0438\u0441\u0438
p179
I00
ttRp180
(dp181
g9
I00
sg10
g14
sg12
g178
sg11
L43L
sg13
g179
sbag2
(g3
g4
(L44L
VN_ZAP
p182
V\u041d\u043e\u043c\u0435\u0440 \u043f\u043e\u0437\u0438\u0446\u0438\u0438 \u0437\u0430\u043f\u0438\u0441\u0438
p183
I00
ttRp184
(dp185
g9
I00
sg10
g14
sg12
g182
sg11
L44L
sg13
g183
sbag2
(g3
g4
(L45L
VPR_NOV
p186
V\u041f\u0440\u0438\u0437\u043d\u0430\u043a \u0438\u0441\u043f\u0440\u0430\u0432\u043b\u0435\u043d\u043d\u043e\u0439 \u0437\u0430\u043f\u0438\u0441\u0438
p187
I00
ttRp188
(dp189
g9
I00
sg10
g14
sg12
g186
sg11
L45L
sg13
g187
sbag2
(g3
g4
(L46L
VPACIENT
p190
V\u0421\u0432\u0435\u0434\u0435\u043d\u0438\u044f \u043e \u043f\u0430\u0446\u0438\u0435\u043d\u0442\u0435
p191
I00
ttRp192
(dp193
g9
I00
sg10
g14
sg12
g190
sg11
L46L
sg13
g191
sbag2
(g3
g4
(L47L
VVPOLIS
p194
V\u0422\u0438\u043f \u0434\u043e\u043a\u0443\u043c\u0435\u043d\u0442\u0430, \u043f\u043e\u0434\u0442\u0432\u0435\u0440\u0436\u0434\u0430\u044e\u0449\u0435\u0433\u043e \u0444\u0430\u043a\u0442 \u0441\u0442\u0440\u0430\u0445\u043e\u0432\u0430\u043d\u0438\u044f \u043f\u043e \u041e\u041c\u0421
p195
I01
ttRp196
(dp197
g9
I01
sg10
g14
sg12
g194
sg11
L47L
sg13
g195
sbag2
(g3
g4
(L48L
VSPOLIS
p198
V\u0421\u0435\u0440\u0438\u044f \u0434\u043e\u043a\u0443\u043c\u0435\u043d\u0442\u0430, \u043f\u043e\u0434\u0442\u0432\u0435\u0440\u0436\u0434\u0430\u044e\u0449\u0435\u0433\u043e \u0444\u0430\u043a\u0442 \u0441\u0442\u0440\u0430\u0445\u043e\u0432\u0430\u043d\u0438\u044f \u043f\u043e \u041e\u041c\u0421
p199
I01
ttRp200
(dp201
g9
I01
sg10
g14
sg12
g198
sg11
L48L
sg13
g199
sbag2
(g3
g4
(L49L
VNPOLIS
p202
V\u041d\u043e\u043c\u0435\u0440 \u0434\u043e\u043a\u0443\u043c\u0435\u043d\u0442\u0430, \u043f\u043e\u0434\u0442\u0432\u0435\u0440\u0436\u0434\u0430\u044e\u0449\u0435\u0433\u043e \u0444\u0430\u043a\u0442 \u0441\u0442\u0440\u0430\u0445\u043e\u0432\u0430\u043d\u0438\u044f \u043f\u043e \u041e\u041c\u0421
p203
I01
ttRp204
(dp205
g9
I01
sg10
g14
sg12
g202
sg11
L49L
sg13
g203
sbag2
(g3
g4
(L50L
VSMO
p206
V\u0420\u0435\u0435\u0441\u0442\u0440\u043e\u0432\u044b\u0439 \u043d\u043e\u043c\u0435\u0440 \u0421\u041c\u041e
p207
I01
ttRp208
(dp209
g9
I01
sg10
g14
sg12
g206
sg11
L50L
sg13
g207
sbag2
(g3
g4
(L51L
VSMO_OGRN
p210
V\u041e\u0413\u0420\u041d \u0421\u041c\u041e
p211
I01
ttRp212
(dp213
g9
I01
sg10
g14
sg12
g210
sg11
L51L
sg13
g211
sbag2
(g3
g4
(L52L
VSMO_OK
p214
V\u041e\u041a\u0410\u0422\u041e \u0442\u0435\u0440\u0440\u0438\u0442\u043e\u0440\u0438\u0438 \u0441\u0442\u0440\u0430\u0445\u043e\u0432\u0430\u043d\u0438\u044f
p215
I01
ttRp216
(dp217
g9
I01
sg10
g14
sg12
g214
sg11
L52L
sg13
g215
sbag2
(g3
g4
(L53L
VSMO_NAM
p218
V\u041d\u0430\u0438\u043c\u0435\u043d\u043e\u0432\u0430\u043d\u0438\u0435 \u0421\u041c\u041e
p219
I01
ttRp220
(dp221
g9
I01
sg10
g14
sg12
g218
sg11
L53L
sg13
g219
sbag2
(g3
g4
(L54L
VNOVOR
p222
V\u041f\u0440\u0438\u0437\u043d\u0430\u043a \u043d\u043e\u0432\u043e\u0440\u043e\u0436\u0434\u0435\u043d\u043d\u043e\u0433\u043e
p223
I01
ttRp224
(dp225
g9
I01
sg10
g14
sg12
g222
sg11
L54L
sg13
g223
sbag2
(g3
g4
(L55L
VSLUCH
p226
V\u0421\u0432\u0435\u0434\u0435\u043d\u0438\u044f \u043e \u0441\u043b\u0443\u0447\u0430\u0435
p227
I00
ttRp228
(dp229
g9
I00
sg10
g14
sg12
g226
sg11
L55L
sg13
g227
sbag2
(g3
g4
(L56L
VIDCASE
p230
V\u041d\u043e\u043c\u0435\u0440 \u0437\u0430\u043f\u0438\u0441\u0438 \u0432 \u0440\u0435\u0435\u0441\u0442\u0440\u0435 \u0441\u043b\u0443\u0447\u0430\u0435\u0432
p231
I00
ttRp232
(dp233
g9
I00
sg10
g14
sg12
g230
sg11
L56L
sg13
g231
sbag2
(g3
g4
(L57L
VUSL_OK
p234
V\u0423\u0441\u043b\u043e\u0432\u0438\u044f \u043e\u043a\u0430\u0437\u0430\u043d\u0438\u044f \u043c\u0435\u0434\u0438\u0446\u0438\u043d\u0441\u043a\u043e\u0439 \u043f\u043e\u043c\u043e\u0449\u0438
p235
I01
ttRp236
(dp237
g9
I01
sg10
g14
sg12
g234
sg11
L57L
sg13
g235
sbag2
(g3
g4
(L58L
VVIDPOM
p238
V\u0412\u0438\u0434 \u043f\u043e\u043c\u043e\u0449\u0438
p239
I01
ttRp240
(dp241
g9
I01
sg10
g14
sg12
g238
sg11
L58L
sg13
g239
sbag2
(g3
g4
(L59L
VNPR_MO
p242
V\u041a\u043e\u0434 \u041c\u041e, \u043d\u0430\u043f\u0440\u0430\u0432\u0438\u0432\u0448\u0438\u0433\u043e \u043d\u0430 \u043b\u0435\u0447\u0435\u043d\u0438\u0435 (\u0433\u043e\u0441\u043f\u0438\u0442\u0430\u043b\u0438\u0437\u0430\u0446\u0438\u044e, \u0434\u0438\u0430\u0433\u043d\u043e\u0441\u0442\u0438\u043a\u0443, \u043a\u043e\u043d\u0441\u0443\u043b\u044c\u0442\u0430\u0446\u0438\u044e)
p243
I01
ttRp244
(dp245
g9
I01
sg10
g14
sg12
g242
sg11
L59L
sg13
g243
sbag2
(g3
g4
(L60L
VEXTR
p246
V\u041d\u0430\u043f\u0440\u0430\u0432\u043b\u0435\u043d\u0438\u0435 (\u0433\u043e\u0441\u043f\u0438\u0442\u0430\u043b\u0438\u0437\u0430\u0446\u0438\u044f)
p247
I01
ttRp248
(dp249
g9
I01
sg10
g14
sg12
g246
sg11
L60L
sg13
g247
sbag2
(g3
g4
(L61L
VLPU
p250
V\u041a\u043e\u0434 \u041c\u041e
p251
I01
ttRp252
(dp253
g9
I01
sg10
g14
sg12
g250
sg11
L61L
sg13
g251
sbag2
(g3
g4
(L62L
VLPU_1
p254
V\u041f\u043e\u0434\u0440\u0430\u0437\u0434\u0435\u043b\u0435\u043d\u0438\u0435 \u041c\u041e
p255
I01
ttRp256
(dp257
g9
I01
sg10
g14
sg12
g254
sg11
L62L
sg13
g255
sbag2
(g3
g4
(L63L
VPODR
p258
V\u041a\u043e\u0434 \u043e\u0442\u0434\u0435\u043b\u0435\u043d\u0438\u044f
p259
I01
ttRp260
(dp261
g9
I01
sg10
g14
sg12
g258
sg11
L63L
sg13
g259
sbag2
(g3
g4
(L64L
VPROFIL
p262
V\u041f\u0440\u043e\u0444\u0438\u043b\u044c
p263
I01
ttRp264
(dp265
g9
I01
sg10
g14
sg12
g262
sg11
L64L
sg13
g263
sbag2
(g3
g4
(L65L
VDET
p266
V\u041f\u0440\u0438\u0437\u043d\u0430\u043a \u0434\u0435\u0442\u0441\u043a\u043e\u0433\u043e \u043f\u0440\u043e\u0444\u0438\u043b\u044f
p267
I01
ttRp268
(dp269
g9
I01
sg10
g14
sg12
g266
sg11
L65L
sg13
g267
sbag2
(g3
g4
(L66L
VNHISTORY
p270
V\u041d\u043e\u043c\u0435\u0440 \u0438\u0441\u0442\u043e\u0440\u0438\u0438 \u0431\u043e\u043b\u0435\u0437\u043d\u0438/\u0422\u0430\u043b\u043e\u043d\u0430 \u0430\u043c\u0431\u0443\u043b\u0430\u0442\u043e\u0440\u043d\u043e\u0433\u043e \u043f\u0440\u0438\u0435\u043c\u0430/\u0430\u043c\u0431\u0443\u043b\u0430\u0442\u043e\u0440\u043d\u0430\u044f \u043a\u0430\u0440\u0442\u0430
p271
I01
ttRp272
(dp273
g9
I01
sg10
g14
sg12
g270
sg11
L66L
sg13
g271
sbag2
(g3
g4
(L67L
VDATE_1
p274
V\u0414\u0430\u0442\u0430 \u043d\u0430\u0447\u0430\u043b\u0430 \u043b\u0435\u0447\u0435\u043d\u0438\u044f
p275
I01
ttRp276
(dp277
g9
I01
sg10
g14
sg12
g274
sg11
L67L
sg13
g275
sbag2
(g3
g4
(L68L
VDATE_2
p278
V\u0414\u0430\u0442\u0430 \u043e\u043a\u043e\u043d\u0447\u0430\u043d\u0438\u044f \u043b\u0435\u0447\u0435\u043d\u0438\u044f
p279
I01
ttRp280
(dp281
g9
I01
sg10
g14
sg12
g278
sg11
L68L
sg13
g279
sbag2
(g3
g4
(L69L
VDS0
p282
V\u0414\u0438\u0430\u0433\u043d\u043e\u0437 \u043f\u0435\u0440\u0432\u0438\u0447\u043d\u044b\u0439 (\u043a\u043e\u0434 \u043a\u043b\u0438\u043d\u0438\u0447\u0435\u0441\u043a\u043e\u0439 \u0441\u0442\u0430\u0434\u0438\u0438 \u043e\u043d\u043a\u043e\u043b\u043e\u0433\u0438\u0447\u0435\u0441\u043a\u043e\u0433\u043e \u0437\u0430\u0431\u043e\u043b\u0435\u0432\u0430\u043d\u0438\u044f)
p283
I01
ttRp284
(dp285
g9
I01
sg10
g14
sg12
g282
sg11
L69L
sg13
g283
sbag2
(g3
g4
(L70L
VDS1
p286
V\u0414\u0438\u0430\u0433\u043d\u043e\u0437 \u043e\u0441\u043d\u043e\u0432\u043d\u043e\u0439
p287
I01
ttRp288
(dp289
g9
I01
sg10
g14
sg12
g286
sg11
L70L
sg13
g287
sbag2
(g3
g4
(L71L
VDS2
p290
V\u0414\u0438\u0430\u0433\u043d\u043e\u0437 \u0441\u043e\u043f\u0443\u0442\u0441\u0442\u0432\u0443\u044e\u0449\u0435\u0433\u043e \u0437\u0430\u0431\u043e\u043b\u0435\u0432\u0430\u043d\u0438\u044f
p291
I01
ttRp292
(dp293
g9
I01
sg10
g14
sg12
g290
sg11
L71L
sg13
g291
sbag2
(g3
g4
(L72L
VCODE_MES1
p294
V\u041a\u043e\u0434 \u041c\u042d\u0421
p295
I01
ttRp296
(dp297
g9
I01
sg10
g14
sg12
g294
sg11
L72L
sg13
g295
sbag2
(g3
g4
(L73L
VCODE_MES2
p298
V\u041a\u043e\u0434 \u041c\u042d\u0421 \u0441\u043e\u043f\u0443\u0442\u0441\u0442\u0432\u0443\u044e\u0449\u0435\u0433\u043e \u0437\u0430\u0431\u043e\u043b\u0435\u0432\u0430\u043d\u0438\u044f
p299
I01
ttRp300
(dp301
g9
I01
sg10
g14
sg12
g298
sg11
L73L
sg13
g299
sbag2
(g3
g4
(L74L
VRSLT
p302
V\u0420\u0435\u0437\u0443\u043b\u044c\u0442\u0430\u0442 \u043e\u0431\u0440\u0430\u0449\u0435\u043d\u0438\u044f/\u0433\u043e\u0441\u043f\u0438\u0442\u0430\u043b\u0438\u0437\u0430\u0446\u0438\u0438
p303
I01
ttRp304
(dp305
g9
I01
sg10
g14
sg12
g302
sg11
L74L
sg13
g303
sbag2
(g3
g4
(L75L
VISHOD
p306
V\u0418\u0441\u0445\u043e\u0434 \u0437\u0430\u0431\u043e\u043b\u0435\u0432\u0430\u043d\u0438\u044f
p307
I01
ttRp308
(dp309
g9
I01
sg10
g14
sg12
g306
sg11
L75L
sg13
g307
sbag2
(g3
g4
(L76L
VPRVS
p310
V\u0421\u043f\u0435\u0446\u0438\u0430\u043b\u044c\u043d\u043e\u0441\u0442\u044c \u043b\u0435\u0447\u0430\u0449\u0435\u0433\u043e \u0432\u0440\u0430\u0447\u0430
p311
I01
ttRp312
(dp313
g9
I01
sg10
g14
sg12
g310
sg11
L76L
sg13
g311
sbag2
(g3
g4
(L77L
VIDDOKT
p314
V\u0421\u041d\u0418\u041b\u0421 \u0432\u0430\u0447\u0430, \u0437\u0430\u043a\u0440\u044b\u0432\u0448\u0435\u0433\u043e \u0442\u0430\u043b\u043e\u043d/\u0438\u0441\u0442\u043e\u0440\u0438\u044e \u0431\u043e\u043b\u0435\u0437\u043d\u0438
p315
I01
ttRp316
(dp317
g9
I01
sg10
g14
sg12
g314
sg11
L77L
sg13
g315
sbag2
(g3
g4
(L78L
VOS_SLUCH
p318
V\u041f\u0440\u0438\u0437\u043d\u0430\u043a "\u041e\u0441\u043e\u0431\u044b\u0439 \u0441\u043b\u0443\u0447\u0430\u0439" \u043f\u0440\u0438 \u0440\u0435\u0433\u0438\u0441\u0442\u0440\u0430\u0446\u0438\u0438 \u043e\u0431\u0440\u0430\u0449\u0435\u043d\u0438\u044f \u0437\u0430 \u043c\u0435\u0434\u0438\u0446\u0438\u043d\u0441\u043a\u043e\u0439 \u043f\u043e\u043c\u043e\u0449\u044c\u044e
p319
I01
ttRp320
(dp321
g9
I01
sg10
g14
sg12
g318
sg11
L78L
sg13
g319
sbag2
(g3
g4
(L79L
VIDSP
p322
V\u041a\u043e\u0434 \u0441\u043f\u043e\u0441\u043e\u0431\u0430 \u043e\u043f\u043b\u0430\u0442\u044b \u043c\u0435\u0434\u0438\u0446\u0438\u043d\u0441\u043a\u043e\u0439 \u043f\u043e\u043c\u043e\u0449\u0438
p323
I01
ttRp324
(dp325
g9
I01
sg10
g14
sg12
g322
sg11
L79L
sg13
g323
sbag2
(g3
g4
(L80L
VED_COL
p326
V\u041a\u043e\u043b\u0438\u0447\u0435\u0441\u0442\u0432\u043e \u0435\u0434\u0438\u043d\u0438\u0446 \u043e\u043f\u043b\u0430\u0442\u044b \u043c\u0435\u0434\u0438\u0446\u0438\u043d\u0441\u043a\u043e\u0439 \u043f\u043e\u043c\u043e\u0449\u0438
p327
I01
ttRp328
(dp329
g9
I01
sg10
g14
sg12
g326
sg11
L80L
sg13
g327
sbag2
(g3
g4
(L81L
VTARIF
p330
V\u0422\u0430\u0440\u0438\u0444
p331
I01
ttRp332
(dp333
g9
I01
sg10
g14
sg12
g330
sg11
L81L
sg13
g331
sbag2
(g3
g4
(L82L
VSUMV
p334
V\u0421\u0443\u043c\u043c\u0430, \u0432\u044b\u0441\u0442\u0430\u0432\u043b\u0435\u043d\u043d\u0430\u044f \u043a \u043e\u043f\u043b\u0430\u0442\u0435
p335
I01
ttRp336
(dp337
g9
I01
sg10
g14
sg12
g334
sg11
L82L
sg13
g335
sbag2
(g3
g4
(L83L
VOPLATA
p338
V\u0422\u0438\u043f \u043e\u043f\u043b\u0430\u0442\u044b
p339
I01
ttRp340
(dp341
g9
I01
sg10
g14
sg12
g338
sg11
L83L
sg13
g339
sbag2
(g3
g4
(L84L
VSUMP
p342
V\u0421\u0443\u043c\u043c\u0443, \u043f\u0440\u0438\u043d\u044f\u0442\u0430\u044f \u043a \u043e\u043f\u043b\u0430\u0442\u0435 \u0421\u041c\u041e (\u0422\u0424\u041e\u041c\u0421)
p343
I01
ttRp344
(dp345
g9
I01
sg10
g14
sg12
g342
sg11
L84L
sg13
g343
sbag2
(g3
g4
(L85L
VREFREASON
p346
V\u041a\u043e\u0434 \u043f\u0440\u0438\u0447\u0438\u043d\u044b \u043e\u0442\u043a\u0430\u0437\u0430 (\u0447\u0430\u0441\u0442\u0438\u0447\u043d\u043e\u0439) \u043e\u043f\u043b\u0430\u0442\u044b
p347
I01
ttRp348
(dp349
g9
I01
sg10
g14
sg12
g346
sg11
L85L
sg13
g347
sbag2
(g3
g4
(L86L
VUSL
p350
V\u0421\u0432\u0435\u0434\u0435\u043d\u0438\u044f \u043e\u0431 \u0443\u0441\u043b\u0443\u0433\u0435
p351
I00
ttRp352
(dp353
g9
I00
sg10
g14
sg12
g350
sg11
L86L
sg13
g351
sbag2
(g3
g4
(L87L
VIDSERV
p354
V\u041d\u043e\u043c\u0435\u0440 \u0437\u0430\u043f\u0438\u0441\u0438 \u0432 \u0440\u0435\u0435\u0441\u0442\u0440\u0435 \u0443\u0441\u043b\u0443\u0433
p355
I01
ttRp356
(dp357
g9
I01
sg10
g14
sg12
g354
sg11
L87L
sg13
g355
sbag2
(g3
g4
(L88L
VDATE_IN
p358
V\u0414\u0430\u0442\u0430 \u043d\u0430\u0447\u0430\u043b\u0430 \u043e\u043a\u0430\u0437\u0430\u043d\u0438\u044f \u0443\u0441\u043b\u0443\u0433
p359
I01
ttRp360
(dp361
g9
I01
sg10
g14
sg12
g358
sg11
L88L
sg13
g359
sbag2
(g3
g4
(L89L
VDATE_OUT
p362
V\u0414\u0430\u0442\u0430 \u043e\u043a\u043e\u043d\u0447\u0430\u043d\u0438\u044f \u043e\u043a\u0430\u0437\u0430\u043d\u0438\u044f \u0443\u0441\u043b\u0443\u0433
p363
I01
ttRp364
(dp365
g9
I01
sg10
g14
sg12
g362
sg11
L89L
sg13
g363
sbag2
(g3
g4
(L90L
VDS
p366
V\u0414\u0438\u0430\u0433\u043d\u043e\u0437
p367
I01
ttRp368
(dp369
g9
I01
sg10
g14
sg12
g366
sg11
L90L
sg13
g367
sbag2
(g3
g4
(L91L
VCODE_USL
p370
V\u041a\u043e\u0434 \u0443\u0441\u043b\u0443\u0433\u0438
p371
I01
ttRp372
(dp373
g9
I01
sg10
g14
sg12
g370
sg11
L91L
sg13
g371
sbag2
(g3
g4
(L92L
VROL_USL
p374
V\u041a\u043e\u043b\u0438\u0447\u0435\u0441\u0442\u0432\u043e \u0443\u0441\u043b\u0443\u0433 (\u043a\u0440\u0430\u0442\u043d\u043e\u0441\u0442\u044c \u0443\u0441\u043b\u0443\u0433\u0438)
p375
I01
ttRp376
(dp377
g9
I01
sg10
g14
sg12
g374
sg11
L92L
sg13
g375
sbag2
(g3
g4
(L93L
VSUMV_USL
p378
V\u0421\u0442\u043e\u0438\u043c\u043e\u0441\u0442\u044c \u043c\u0435\u0434\u0438\u0446\u0438\u043d\u0441\u043a\u043e\u0439 \u0443\u0441\u043b\u0443\u0433\u0438 \u0432\u044b\u0441\u0442\u0430\u0432\u043b\u0435\u043d\u043d\u043e\u0439 \u043a \u043e\u043f\u043b\u0430\u0442\u0435 (\u0440\u0443\u0431.)
p379
I01
ttRp380
(dp381
g9
I01
sg10
g14
sg12
g378
sg11
L93L
sg13
g379
sbag2
(g3
g4
(L94L
VCODE_MD
p382
V\u041a\u043e\u0434 \u043c\u0435\u0434\u0438\u0446\u0438\u043d\u0441\u043a\u043e\u0433\u043e \u0440\u0430\u0431\u043e\u0442\u043d\u0438\u043a\u0430, \u043e\u043a\u0430\u0437\u0430\u0432\u0448\u0435\u0433\u043e \u043c\u0435\u0434\u0438\u0446\u0438\u043d\u0441\u043a\u0443\u044e \u0443\u0441\u043b\u0443\u0433\u0443
p383
I01
ttRp384
(dp385
g9
I01
sg10
g14
sg12
g382
sg11
L94L
sg13
g383
sbag2
(g3
g4
(L95L
VCOMENTU
p386
V\u0421\u043b\u0443\u0436\u0435\u0431\u043d\u043e\u0435 \u043f\u043e\u043b\u0435
p387
I01
ttRp388
(dp389
g9
I01
sg10
g14
sg12
g386
sg11
L95L
sg13
g387
sbag2
(g3
g4
(L96L
VCOMENTSL
p390
V\u0421\u043b\u0443\u0436\u0435\u0431\u043d\u043e\u0435 \u043f\u043e\u043b\u0435
p391
I01
ttRp392
(dp393
g9
I01
sg10
g14
sg12
g390
sg11
L96L
sg13
g391
sbag2
(g3
g4
(L97L
VKOL_USL
p394
V\u041a\u043e\u043b\u0438\u0447\u0435\u0441\u0442\u0432\u043e \u0443\u0441\u043b\u0443\u0433 (\u043a\u0440\u0430\u0442\u043d\u043e\u0441\u0442\u044c \u0443\u0441\u043b\u0443\u0433\u0438)
p395
I01
ttRp396
(dp397
g9
I01
sg10
g14
sg12
g394
sg11
L97L
sg13
g395
sbag2
(g3
g4
(L98L
VKOD_LPU
p398
V\u041a\u043e\u0434 \u043c\u0435\u0434\u0438\u0446\u0438\u043d\u0441\u043a\u043e\u0439 \u043e\u0440\u0433\u0430\u043d\u0438\u0437\u0430\u0446\u0438\u0438
p399
I01
ttRp400
(dp401
g9
I01
sg10
g14
sg12
g398
sg11
L98L
sg13
g399
sbag2
(g3
g4
(L99L
VDAT_SC
p402
V\u0414\u0430\u0442\u0430 \u043f\u0435\u0440\u0435\u0434\u0430\u0447\u0438 \u0441\u0447\u0435\u0442\u0430
p403
I01
ttRp404
(dp405
g9
I01
sg10
g14
sg12
g402
sg11
L99L
sg13
g403
sbag2
(g3
g4
(L100L
VVL
p406
V\u0412\u0438\u0434 \u043c\u0435\u0434\u0438\u0446\u0438\u043d\u0441\u043a\u043e\u0439 \u043e\u0440\u0433\u0430\u043d\u0438\u0437\u0430\u0446\u0438\u0438 (\u0442\u0438\u043f \u0441\u0447\u0435\u0442\u0430)
p407
I01
ttRp408
(dp409
g9
I01
sg10
g14
sg12
g406
sg11
L100L
sg13
g407
sbag2
(g3
g4
(L101L
VN_CH
p410
VN \u0441\u0447\u0435\u0442\u0430
p411
I01
ttRp412
(dp413
g9
I01
sg10
g14
sg12
g410
sg11
L101L
sg13
g411
sbag2
(g3
g4
(L102L
VN_NAPR
p414
VN \u043d\u0430\u043f\u0440\u0430\u0432\u043b\u0435\u043d\u0438\u044f, \u043d\u0430\u043f\u0440\u0430\u0432\u0438\u0432\u0448\u0435\u0435 \u0443\u0447\u0440\u0435\u0436\u0434\u0435\u043d\u0438\u0435 \u0438\u043b\u0438 \u043e\u0442\u043c\u0435\u0442\u043a\u0430 \u043e \u043f\u0440\u0438\u0435\u043c\u0435 \u043f\u043e \u0441\u043a.\u043f\u043e\u043c
p415
I01
ttRp416
(dp417
g9
I01
sg10
g14
sg12
g414
sg11
L102L
sg13
g415
sbag2
(g3
g4
(L103L
VDAT_VV
p418
V\u0414\u0430\u0442\u0430 \u043f\u043e\u0441\u0442\u0443\u043f\u043b\u0435\u043d\u0438\u044f
p419
I01
ttRp420
(dp421
g9
I01
sg10
g14
sg12
g418
sg11
L103L
sg13
g419
sbag2
(g3
g4
(L104L
VDAT_PR
p422
V\u0414\u0430\u0442\u0430 \u0432\u044b\u043f\u0438\u0441\u043a\u0438
p423
I01
ttRp424
(dp425
g9
I01
sg10
g14
sg12
g422
sg11
L104L
sg13
g423
sbag2
(g3
g4
(L105L
VSER_POL
p426
V\u0421\u0435\u0440\u0438\u044f \u043f\u043e\u043b\u0438\u0441\u0430
p427
I01
ttRp428
(dp429
g9
I01
sg10
g14
sg12
g426
sg11
L105L
sg13
g427
sbag2
(g3
g4
(L106L
VNOM_POL
p430
V\u041d\u043e\u043c\u0435\u0440 \u043f\u043e\u043b\u0438\u0441\u0430
p431
I01
ttRp432
(dp433
g9
I01
sg10
g14
sg12
g430
sg11
L106L
sg13
g431
sbag2
(g3
g4
(L107L
VFAMIL
p434
V\u0424\u0430\u043c\u0438\u043b\u0438\u044f
p435
I01
ttRp436
(dp437
g9
I01
sg10
g14
sg12
g434
sg11
L107L
sg13
g435
sbag2
(g3
g4
(L108L
VIMYA
p438
V\u0418\u043c\u044f
p439
I01
ttRp440
(dp441
g9
I01
sg10
g14
sg12
g438
sg11
L108L
sg13
g439
sbag2
(g3
g4
(L109L
VKOD_F
p442
V\u041a\u043e\u0434 \u0441\u0442\u0440\u0430\u0445\u043e\u0432\u043e\u0439 \u043a\u043e\u043c\u043f\u0430\u043d\u0438\u0438
p443
I01
ttRp444
(dp445
g9
I01
sg10
g14
sg12
g442
sg11
L109L
sg13
g443
sbag2
(g3
g4
(L110L
VPOL
p446
V\u041f\u043e\u043b
p447
I01
ttRp448
(dp449
g9
I01
sg10
g14
sg12
g446
sg11
L110L
sg13
g447
sbag2
(g3
g4
(L111L
VD_R
p450
V\u0414\u0430\u0442\u0430 \u0440\u043e\u0436\u0434\u0435\u043d\u0438\u044f
p451
I01
ttRp452
(dp453
g9
I01
sg10
g14
sg12
g450
sg11
L111L
sg13
g451
sbag2
(g3
g4
(L112L
VRAION
p454
V\u0420\u0430\u0439\u043e\u043d
p455
I01
ttRp456
(dp457
g9
I01
sg10
g14
sg12
g454
sg11
L112L
sg13
g455
sbag2
(g3
g4
(L113L
VNAS_P
p458
V\u041d\u0430\u0441\u0435\u043b\u0435\u043d\u043d\u044b\u0439 \u043f\u0443\u043d\u043a\u0442
p459
I01
ttRp460
(dp461
g9
I01
sg10
g14
sg12
g458
sg11
L113L
sg13
g459
sbag2
(g3
g4
(L114L
VUL
p462
V\u0423\u043b\u0438\u0446\u0430
p463
I01
ttRp464
(dp465
g9
I01
sg10
g14
sg12
g462
sg11
L114L
sg13
g463
sbag2
(g3
g4
(L115L
VDOM
p466
V\u0414\u043e\u043c
p467
I01
ttRp468
(dp469
g9
I01
sg10
g14
sg12
g466
sg11
L115L
sg13
g467
sbag2
(g3
g4
(L116L
VKV
p470
V\u041a\u0432\u0430\u0440\u0442\u0438\u0440\u0430
p471
I01
ttRp472
(dp473
g9
I01
sg10
g14
sg12
g470
sg11
L116L
sg13
g471
sbag2
(g3
g4
(L117L
VKATEGOR
p474
V\u041a\u0430\u0442\u0435\u0433\u043e\u0440\u0438\u044f
p475
I01
ttRp476
(dp477
g9
I01
sg10
g14
sg12
g474
sg11
L117L
sg13
g475
sbag2
(g3
g4
(L118L
VMES_R
p478
V\u041c\u0435\u0441\u0442\u043e \u0440\u0430\u0431\u043e\u0442\u044b
p479
I01
ttRp480
(dp481
g9
I01
sg10
g14
sg12
g478
sg11
L118L
sg13
g479
sbag2
(g3
g4
(L119L
VKOD_PR
p482
V\u0420\u0435\u0433\u0438\u0441\u0442\u0440\u0430\u0446\u0438\u043e\u043d\u043d\u044b\u0439 \u043d\u043e\u043c\u0435\u0440 \u043f\u0440\u0435\u0434\u043f\u0440\u0438\u044f\u0442\u0438\u044f
p483
I01
ttRp484
(dp485
g9
I01
sg10
g14
sg12
g482
sg11
L119L
sg13
g483
sbag2
(g3
g4
(L120L
VOTD
p486
V\u041a\u043e\u0434 \u043e\u0442\u0434\u0435\u043b\u0435\u043d\u0438\u044f \u0441\u0442\u0430\u0446\u0438\u043e\u043d\u0430\u0440\u0430
p487
I01
ttRp488
(dp489
g9
I01
sg10
g14
sg12
g486
sg11
L120L
sg13
g487
sbag2
(g3
g4
(L121L
VN_KART
p490
V\u041d\u043e\u043c\u0435\u0440 \u0438\u0441\u0442\u043e\u0440\u0438\u0438 \u0431\u043e\u043b\u0435\u0437\u043d\u0438 \u0438\u043b\u0438 \u043d\u043e\u043c\u0435\u0440 \u043a\u0430\u0440\u0442\u044b
p491
I01
ttRp492
(dp493
g9
I01
sg10
g14
sg12
g490
sg11
L121L
sg13
g491
sbag2
(g3
g4
(L122L
VDIA_O
p494
V\u0414\u0438\u0430\u0433\u043d\u043e\u0437 \u043e\u0441\u043d\u043e\u0432\u043d\u043e\u0439
p495
I01
ttRp496
(dp497
g9
I01
sg10
g14
sg12
g494
sg11
L122L
sg13
g495
sbag2
(g3
g4
(L123L
VDOP_D
p498
V\u0414\u043e\u043f\u043e\u043b\u043d\u0435\u043d\u0438\u0435 \u043a \u043e\u0441\u043d\u043e\u0432\u043d\u043e\u043c\u0443 \u0434\u0438\u0430\u0433\u043d\u043e\u0437\u0443
p499
I01
ttRp500
(dp501
g9
I01
sg10
g14
sg12
g498
sg11
L123L
sg13
g499
sbag2
(g3
g4
(L124L
VDIA_S
p502
V\u0414\u0438\u0430\u0433\u043d\u043e\u0437 \u0441\u043e\u043f\u0443\u0442\u0441\u0442\u0432\u0443\u044e\u0449\u0438\u0439 1
p503
I01
ttRp504
(dp505
g9
I01
sg10
g14
sg12
g502
sg11
L124L
sg13
g503
sbag2
(g3
g4
(L125L
VDOP_S
p506
V\u0414\u043e\u043f\u043e\u043b\u043d\u0435\u043d\u0438\u0435 \u043a \u0441\u043e\u043f\u0443\u0442\u0441\u0442\u0432\u0443\u044e\u0449\u0435\u043c\u0443 \u0434\u0438\u0430\u0433\u043d\u043e\u0437\u0443 1
p507
I01
ttRp508
(dp509
g9
I01
sg10
g14
sg12
g506
sg11
L125L
sg13
g507
sbag2
(g3
g4
(L126L
VDIA_S1
p510
V\u0414\u0438\u0430\u0433\u043d\u043e\u0437 \u0441\u043e\u043f\u0443\u0442\u0441\u0442\u0432\u0443\u044e\u0449\u0438\u0439 2
p511
I01
ttRp512
(dp513
g9
I01
sg10
g14
sg12
g510
sg11
L126L
sg13
g511
sbag2
(g3
g4
(L127L
VDOP_S1
p514
V\u0414\u043e\u043f\u043e\u043b\u043d\u0435\u043d\u0438\u0435 \u043a \u0441\u043e\u043f\u0443\u0442\u0441\u0442\u0432\u0443\u044e\u0449\u0435\u043c\u0443 \u0434\u0438\u0430\u0433\u043d\u043e\u0437\u0443 2
p515
I01
ttRp516
(dp517
g9
I01
sg10
g14
sg12
g514
sg11
L127L
sg13
g515
sbag2
(g3
g4
(L128L
VOSL
p518
V\u0414\u0438\u0430\u0433\u043d\u043e\u0437 \u043e\u0441\u043b\u043e\u0436\u043d\u0435\u043d\u0438\u044f
p519
I01
ttRp520
(dp521
g9
I01
sg10
g14
sg12
g518
sg11
L128L
sg13
g519
sbag2
(g3
g4
(L129L
VDOP_OSL
p522
V\u0414\u043e\u043f\u043e\u043b\u043d\u0435\u043d\u0438\u0435 \u043a \u0434\u0438\u0430\u0433\u043d\u043e\u0437\u0443 \u043e\u0441\u043b\u043e\u0436\u043d\u0435\u043d\u0438\u044f
p523
I01
ttRp524
(dp525
g9
I01
sg10
g14
sg12
g522
sg11
L129L
sg13
g523
sbag2
(g3
g4
(L130L
VKSG_MS
p526
V\u0428\u0440\u0438\u0444\u0442 \u041a\u0421\u0413
p527
I01
ttRp528
(dp529
g9
I01
sg10
g14
sg12
g526
sg11
L130L
sg13
g527
sbag2
(g3
g4
(L131L
VDL_LEC
p530
V\u041f\u0440\u043e\u0434\u043e\u043b\u0436\u0438\u0442\u0435\u043b\u044c\u043d\u043e\u0441\u0442\u044c \u043b\u0435\u0447\u0435\u043d\u0438\u044f
p531
I01
ttRp532
(dp533
g9
I01
sg10
g14
sg12
g530
sg11
L131L
sg13
g531
sbag2
(g3
g4
(L132L
VSL
p534
V\u0421\u043b\u0443\u0447\u0430\u0439 \u043e\u0431\u0441\u043b\u0443\u0436\u0438\u0432\u0430\u043d\u0438\u044f
p535
I01
ttRp536
(dp537
g9
I01
sg10
g14
sg12
g534
sg11
L132L
sg13
g535
sbag2
(g3
g4
(L133L
VISH_LEC
p538
V\u0418\u0441\u0445\u043e\u0434 \u043b\u0435\u0447\u0435\u043d\u0438\u044f
p539
I01
ttRp540
(dp541
g9
I01
sg10
g14
sg12
g538
sg11
L133L
sg13
g539
sbag2
(g3
g4
(L134L
VPR_NZ
p542
V\u041f\u0440\u0438\u0447\u0438\u043d\u044b \u043d\u0435\u0437\u0430\u043a\u043e\u043d\u0447\u0435\u043d\u043d\u043e\u0441\u0442\u0438 \u0441\u043b\u0443\u0447\u0430\u044f
p543
I01
ttRp544
(dp545
g9
I01
sg10
g14
sg12
g542
sg11
L134L
sg13
g543
sbag2
(g3
g4
(L135L
VSTOIM
p546
V\u0421\u0442\u043e\u0438\u043c\u043e\u0441\u0442\u044c \u043b\u0435\u0447\u0435\u043d\u0438\u044f
p547
I01
ttRp548
(dp549
g9
I01
sg10
g14
sg12
g546
sg11
L135L
sg13
g547
sbag2
(g3
g4
(L136L
VKOD_VR
p550
V\u041a\u043e\u0434 \u043b\u0435\u0447\u0430\u0449\u0435\u0433\u043e \u0432\u0440\u0430\u0447\u0430
p551
I01
ttRp552
(dp553
g9
I01
sg10
g14
sg12
g550
sg11
L136L
sg13
g551
sbag2
(g3
g4
(L137L
VKOD_O
p554
V\u041a\u043e\u0434 \u0443\u0441\u043b\u0443\u0433\u0438, \u043e\u0431\u0441\u043b\u0435\u0434\u043e\u0432\u0430\u043d\u0438\u044f, \u043e\u043f\u0435\u0440\u0430\u0446\u0438\u0438 \u0432 \u043c\u0435\u0434\u0438\u0446\u0438\u043d\u0441\u043a\u043e\u0439 \u043e\u0440\u0433\u0430\u043d\u0438\u0437\u0430\u0446\u0438\u0438
p555
I01
ttRp556
(dp557
g9
I01
sg10
g14
sg12
g554
sg11
L137L
sg13
g555
sbag2
(g3
g4
(L138L
VN_OPER
p558
V\u041d\u0430\u0438\u043c\u0435\u043d\u043e\u0432\u0430\u043d\u0438\u0435 \u0443\u0441\u043b\u0443\u0433\u0438, \u043e\u0431\u0441\u043b\u0435\u0434\u043e\u0432\u0430\u043d\u0438\u044f \u043e\u043f\u0435\u0440\u0430\u0446\u0438\u0438
p559
I01
ttRp560
(dp561
g9
I01
sg10
g14
sg12
g558
sg11
L138L
sg13
g559
sbag2
(g3
g4
(L139L
VKOD_TSK
p562
V\u041a\u043e\u0434 \u0442\u0435\u0440\u0440\u0438\u0442\u043e\u0440\u0438\u0438 \u0421\u041c\u041e
p563
I01
ttRp564
(dp565
g9
I01
sg10
g14
sg12
g562
sg11
L139L
sg13
g563
sbag2
(g3
g4
(L140L
VNAMCMO
p566
V\u041d\u0430\u0438\u043c\u0435\u043d\u043e\u0432\u0430\u043d\u0438\u0435 \u0421\u041c\u041e \u0442\u0435\u0440\u0440\u0438\u0442\u043e\u0440\u0438\u0438 \u0420\u0424
p567
I01
ttRp568
(dp569
g9
I01
sg10
g14
sg12
g566
sg11
L140L
sg13
g567
sbag2
(g3
g4
(L141L
VKOD_DOK
p570
V\u0412\u0438\u0434 \u0434\u043e\u043a\u0443\u043c\u0435\u043d\u0442\u0430
p571
I01
ttRp572
(dp573
g9
I01
sg10
g14
sg12
g570
sg11
L141L
sg13
g571
sbag2
(g3
g4
(L142L
VSER_DOK
p574
V\u0421\u0435\u0440\u0438\u044f \u0434\u043e\u043a\u0443\u043c\u0435\u043d\u0442\u0430
p575
I01
ttRp576
(dp577
g9
I01
sg10
g14
sg12
g574
sg11
L142L
sg13
g575
sbag2
(g3
g4
(L143L
VNOM_DOK
p578
V\u041d\u043e\u043c\u0435\u0440 \u0434\u043e\u043a\u0443\u043c\u0435\u043d\u0442\u0430
p579
I01
ttRp580
(dp581
g9
I01
sg10
g14
sg12
g578
sg11
L143L
sg13
g579
sbag2
(g3
g4
(L144L
VVMP
p582
V\u0412\u0438\u0434 \u043c\u0435\u0434\u0438\u0446\u0438\u043d\u0441\u043a\u043e\u0439 \u043f\u043e\u043c\u043e\u0449\u0438
p583
I01
ttRp584
(dp585
g9
I01
sg10
g14
sg12
g582
sg11
L144L
sg13
g583
sbag2
(g3
g4
(L145L
VDAT_BLVN
p586
V\u0414\u0430\u0442\u0430 \u0432\u044b\u0434\u0430\u0447\u0438 \u043b\u0438\u0441\u0442\u043a\u0430 \u0432\u0440\u0435\u043c\u0435\u043d\u043d\u043e\u0439 \u043d\u0435\u0442\u0440\u0443\u0434\u043e\u0441\u043f\u043e\u0441\u043e\u0431\u043d\u043e\u0441\u0442\u0438
p587
I01
ttRp588
(dp589
g9
I01
sg10
g14
sg12
g586
sg11
L145L
sg13
g587
sbag2
(g3
g4
(L146L
VDAT_ELVN
p590
V\u0414\u0430\u0442\u0430 \u0437\u0430\u043a\u0440\u044b\u0442\u0438\u044f \u043b\u0438\u0441\u0442\u0430 \u0432\u0440\u0435\u043c\u0435\u043d\u043d\u043e\u0439 \u043d\u0435\u0442\u0440\u0443\u0434\u043e\u0441\u043f\u043e\u0441\u043e\u0431\u043d\u043e\u0441\u0442\u0438
p591
I01
ttRp592
(dp593
g9
I01
sg10
g14
sg12
g590
sg11
L146L
sg13
g591
sbag2
(g3
g4
(L147L
VDAMAGE
p594
V\u041f\u0440\u0438\u0437\u043d\u0430\u043a \u0442\u0440\u0430\u0432\u043c\u0430\u0442\u0438\u0437\u043c\u0430 \u043d\u0430 \u043f\u0440\u043e\u0438\u0437\u0432\u043e\u0434\u0441\u0442\u0432\u0435
p595
I01
ttRp596
(dp597
g9
I01
sg10
g14
sg12
g594
sg11
L147L
sg13
g595
sbag2
(g3
g4
(L148L
VDATA_NS
p598
V\u0414\u0430\u0442\u0430 \u043d\u0435\u0441\u0447\u0430\u0441\u0442\u043d\u043e\u0433\u043e \u0441\u043b\u0443\u0447\u0430\u044f \u043d\u0430 \u043f\u0440\u043e\u0438\u0437\u0432\u043e\u0434\u0441\u0442\u0432\u0435
p599
I01
ttRp600
(dp601
g9
I01
sg10
g14
sg12
g598
sg11
L148L
sg13
g599
sbag2
(g3
g4
(L149L
VKOD_T
p602
V\u041a\u043e\u0434 \u0442\u0435\u0440\u0440\u0438\u0442\u043e\u0440\u0438\u0438 \u0420\u0424
p603
I01
ttRp604
(dp605
g9
I01
sg10
g14
sg12
g602
sg11
L149L
sg13
g603
sbag2
(g3
g4
(L150L
VKC
p606
V\u0426\u0435\u043b\u044c \u043e\u0431\u0440\u0430\u0449\u0435\u043d\u0438\u044f
p607
I01
ttRp608
(dp609
g9
I01
sg10
g14
sg12
g606
sg11
L150L
sg13
g607
sbag2
(g3
g4
(L151L
VKOL_POS
p610
V\u041a\u043e\u043b\u0438\u0447\u0435\u0441\u0442\u0432\u043e \u043f\u043e\u0441\u0435\u0449\u0435\u043d\u0438\u0439
p611
I01
ttRp612
(dp613
g9
I01
sg10
g14
sg12
g610
sg11
L151L
sg13
g611
sbag2
(g3
g4
(L152L
VPOS_D
p614
V\u041a\u043e\u043b\u0438\u0447\u0435\u0441\u0442\u0432\u043e \u043f\u043e\u0441\u0435\u0449\u0435\u043d\u0438\u0439 \u043d\u0430 \u0434\u043e\u043c\u0443
p615
I01
ttRp616
(dp617
g9
I01
sg10
g14
sg12
g614
sg11
L152L
sg13
g615
sbag2
(g3
g4
(L153L
VS_VR
p618
V\u0421\u043f\u0435\u0446\u0438\u0430\u043b\u044c\u043d\u043e\u0441\u0442\u044c \u0432\u0440\u0430\u0447\u0430
p619
I01
ttRp620
(dp621
g9
I01
sg10
g14
sg12
g618
sg11
L153L
sg13
g619
sbag2
(g3
g4
(L154L
VNOM_SL
p622
V\u041d\u043e\u043c\u0435\u0440 \u0441\u043b\u0443\u0447\u0430\u044f \u043e\u0431\u0441\u043b\u0443\u0436\u0438\u0432\u0430\u043d\u0438\u044f
p623
I01
ttRp624
(dp625
g9
I01
sg10
g14
sg12
g622
sg11
L154L
sg13
g623
sba.