(lp1
ccopy_reg
_reconstructor
p2
(csqlalchemy.util._collections
KeyedTuple
p3
c__builtin__
tuple
p4
(I1
I1
NI1
I01
I1
ttRp5
(dp6
S'is_necessary'
p7
I01
sS'_labels'
p8
(S'id'
p9
S'tag_id'
p10
S'parent_id'
p11
S'template_type_id'
p12
g7
S'ordernum'
p13
tp14
sg12
I1
sg10
I1
sg13
I1
sg11
Nsg9
I1
sbag2
(g3
g4
(I2
I2
I1
I1
I01
I1
ttRp15
(dp16
g7
I01
sg8
g14
sg12
I1
sg10
I2
sg13
I1
sg11
I1
sg9
I2
sbag2
(g3
g4
(I3
I3
I2
I1
I00
I1
ttRp17
(dp18
g7
I00
sg8
g14
sg12
I1
sg10
I3
sg13
I1
sg11
I2
sg9
I3
sbag2
(g3
g4
(I4
I4
I2
I1
I00
I2
ttRp19
(dp20
g7
I00
sg8
g14
sg12
I1
sg10
I4
sg13
I2
sg11
I2
sg9
I4
sbag2
(g3
g4
(I5
I5
I2
I1
I00
I3
ttRp21
(dp22
g7
I00
sg8
g14
sg12
I1
sg10
I5
sg13
I3
sg11
I2
sg9
I5
sbag2
(g3
g4
(I6
I6
I2
I1
I00
I4
ttRp23
(dp24
g7
I00
sg8
g14
sg12
I1
sg10
I6
sg13
I4
sg11
I2
sg9
I6
sbag2
(g3
g4
(I7
I7
I1
I1
I01
I2
ttRp25
(dp26
g7
I01
sg8
g14
sg12
I1
sg10
I7
sg13
I2
sg11
I1
sg9
I7
sbag2
(g3
g4
(I11
I25
I7
I1
I00
I1
ttRp27
(dp28
g7
I00
sg8
g14
sg12
I1
sg10
I25
sg13
I1
sg11
I7
sg9
I11
sbag2
(g3
g4
(I12
I8
I7
I1
I00
I2
ttRp29
(dp30
g7
I00
sg8
g14
sg12
I1
sg10
I8
sg13
I2
sg11
I7
sg9
I12
sbag2
(g3
g4
(I13
I9
I7
I1
I00
I3
ttRp31
(dp32
g7
I00
sg8
g14
sg12
I1
sg10
I9
sg13
I3
sg11
I7
sg9
I13
sbag2
(g3
g4
(I14
I10
I7
I1
I00
I4
ttRp33
(dp34
g7
I00
sg8
g14
sg12
I1
sg10
I10
sg13
I4
sg11
I7
sg9
I14
sbag2
(g3
g4
(I15
I11
I7
I1
I00
I5
ttRp35
(dp36
g7
I00
sg8
g14
sg12
I1
sg10
I11
sg13
I5
sg11
I7
sg9
I15
sbag2
(g3
g4
(I16
I12
I7
I1
I00
I6
ttRp37
(dp38
g7
I00
sg8
g14
sg12
I1
sg10
I12
sg13
I6
sg11
I7
sg9
I16
sbag2
(g3
g4
(I17
I13
I7
I1
I00
I7
ttRp39
(dp40
g7
I00
sg8
g14
sg12
I1
sg10
I13
sg13
I7
sg11
I7
sg9
I17
sbag2
(g3
g4
(I18
I14
I7
I1
I00
I8
ttRp41
(dp42
g7
I00
sg8
g14
sg12
I1
sg10
I14
sg13
I8
sg11
I7
sg9
I18
sbag2
(g3
g4
(I19
I15
I7
I1
I00
I9
ttRp43
(dp44
g7
I00
sg8
g14
sg12
I1
sg10
I15
sg13
I9
sg11
I7
sg9
I19
sbag2
(g3
g4
(I20
I16
I7
I1
I00
I10
ttRp45
(dp46
g7
I00
sg8
g14
sg12
I1
sg10
I16
sg13
I10
sg11
I7
sg9
I20
sbag2
(g3
g4
(I21
I17
I7
I1
I00
I11
ttRp47
(dp48
g7
I00
sg8
g14
sg12
I1
sg10
I17
sg13
I11
sg11
I7
sg9
I21
sbag2
(g3
g4
(I22
I18
I7
I1
I00
I12
ttRp49
(dp50
g7
I00
sg8
g14
sg12
I1
sg10
I18
sg13
I12
sg11
I7
sg9
I22
sbag2
(g3
g4
(I23
I19
I7
I1
I00
I13
ttRp51
(dp52
g7
I00
sg8
g14
sg12
I1
sg10
I19
sg13
I13
sg11
I7
sg9
I23
sbag2
(g3
g4
(I24
I20
I7
I1
I00
I14
ttRp53
(dp54
g7
I00
sg8
g14
sg12
I1
sg10
I20
sg13
I14
sg11
I7
sg9
I24
sbag2
(g3
g4
(I25
I21
I7
I1
I00
I15
ttRp55
(dp56
g7
I00
sg8
g14
sg12
I1
sg10
I21
sg13
I15
sg11
I7
sg9
I25
sbag2
(g3
g4
(I26
I22
I7
I1
I00
I16
ttRp57
(dp58
g7
I00
sg8
g14
sg12
I1
sg10
I22
sg13
I16
sg11
I7
sg9
I26
sbag2
(g3
g4
(I27
I26
I7
I1
I00
I17
ttRp59
(dp60
g7
I00
sg8
g14
sg12
I1
sg10
I26
sg13
I17
sg11
I7
sg9
I27
sbag2
(g3
g4
(I28
I23
I7
I1
I00
I18
ttRp61
(dp62
g7
I00
sg8
g14
sg12
I1
sg10
I23
sg13
I18
sg11
I7
sg9
I28
sbag2
(g3
g4
(I29
I24
I7
I1
I00
I19
ttRp63
(dp64
g7
I00
sg8
g14
sg12
I1
sg10
I24
sg13
I19
sg11
I7
sg9
I29
sbag2
(g3
g4
(I30
I27
NI2
I00
I1
ttRp65
(dp66
g7
I00
sg8
g14
sg12
I2
sg10
I27
sg13
I1
sg11
Nsg9
I30
sbag2
(g3
g4
(I31
I28
I30
I2
I00
I1
ttRp67
(dp68
g7
I00
sg8
g14
sg12
I2
sg10
I28
sg13
I1
sg11
I30
sg9
I31
sbag2
(g3
g4
(I32
I4
I31
I2
I00
I1
ttRp69
(dp70
g7
I00
sg8
g14
sg12
I2
sg10
I4
sg13
I1
sg11
I31
sg9
I32
sbag2
(g3
g4
(I33
I3
I31
I2
I00
I2
ttRp71
(dp72
g7
I00
sg8
g14
sg12
I2
sg10
I3
sg13
I2
sg11
I31
sg9
I33
sbag2
(g3
g4
(I34
I5
I31
I2
I00
I3
ttRp73
(dp74
g7
I00
sg8
g14
sg12
I2
sg10
I5
sg13
I3
sg11
I31
sg9
I34
sbag2
(g3
g4
(I35
I29
I30
I2
I00
I2
ttRp75
(dp76
g7
I00
sg8
g14
sg12
I2
sg10
I29
sg13
I2
sg11
I30
sg9
I35
sbag2
(g3
g4
(I36
I30
I35
I2
I00
I1
ttRp77
(dp78
g7
I00
sg8
g14
sg12
I2
sg10
I30
sg13
I1
sg11
I35
sg9
I36
sbag2
(g3
g4
(I37
I31
I35
I2
I00
I2
ttRp79
(dp80
g7
I00
sg8
g14
sg12
I2
sg10
I31
sg13
I2
sg11
I35
sg9
I37
sbag2
(g3
g4
(I38
I32
I35
I2
I00
I3
ttRp81
(dp82
g7
I00
sg8
g14
sg12
I2
sg10
I32
sg13
I3
sg11
I35
sg9
I38
sbag2
(g3
g4
(I39
I33
I35
I2
I00
I4
ttRp83
(dp84
g7
I00
sg8
g14
sg12
I2
sg10
I33
sg13
I4
sg11
I35
sg9
I39
sbag2
(g3
g4
(I40
I34
I35
I2
I00
I5
ttRp85
(dp86
g7
I00
sg8
g14
sg12
I2
sg10
I34
sg13
I5
sg11
I35
sg9
I40
sbag2
(g3
g4
(I41
I35
I35
I2
I00
I6
ttRp87
(dp88
g7
I00
sg8
g14
sg12
I2
sg10
I35
sg13
I6
sg11
I35
sg9
I41
sbag2
(g3
g4
(I42
I36
I35
I2
I00
I7
ttRp89
(dp90
g7
I00
sg8
g14
sg12
I2
sg10
I36
sg13
I7
sg11
I35
sg9
I42
sbag2
(g3
g4
(I43
I37
I35
I2
I00
I8
ttRp91
(dp92
g7
I00
sg8
g14
sg12
I2
sg10
I37
sg13
I8
sg11
I35
sg9
I43
sbag2
(g3
g4
(I44
I38
I35
I2
I00
I9
ttRp93
(dp94
g7
I00
sg8
g14
sg12
I2
sg10
I38
sg13
I9
sg11
I35
sg9
I44
sbag2
(g3
g4
(I45
I39
I35
I2
I00
I10
ttRp95
(dp96
g7
I00
sg8
g14
sg12
I2
sg10
I39
sg13
I10
sg11
I35
sg9
I45
sbag2
(g3
g4
(I46
I40
I35
I2
I00
I11
ttRp97
(dp98
g7
I00
sg8
g14
sg12
I2
sg10
I40
sg13
I11
sg11
I35
sg9
I46
sbag2
(g3
g4
(I47
I41
I35
I2
I00
I12
ttRp99
(dp100
g7
I00
sg8
g14
sg12
I2
sg10
I41
sg13
I12
sg11
I35
sg9
I47
sbag2
(g3
g4
(I48
I42
I35
I2
I00
I13
ttRp101
(dp102
g7
I00
sg8
g14
sg12
I2
sg10
I42
sg13
I13
sg11
I35
sg9
I48
sbag2
(g3
g4
(I49
I43
I30
I2
I00
I3
ttRp103
(dp104
g7
I00
sg8
g14
sg12
I2
sg10
I43
sg13
I3
sg11
I30
sg9
I49
sbag2
(g3
g4
(I50
I44
I49
I2
I00
I1
ttRp105
(dp106
g7
I00
sg8
g14
sg12
I2
sg10
I44
sg13
I1
sg11
I49
sg9
I50
sbag2
(g3
g4
(I51
I45
I49
I2
I00
I2
ttRp107
(dp108
g7
I00
sg8
g14
sg12
I2
sg10
I45
sg13
I2
sg11
I49
sg9
I51
sbag2
(g3
g4
(I52
I46
I49
I2
I00
I3
ttRp109
(dp110
g7
I00
sg8
g14
sg12
I2
sg10
I46
sg13
I3
sg11
I49
sg9
I52
sbag2
(g3
g4
(I53
I25
I52
I2
I00
I1
ttRp111
(dp112
g7
I00
sg8
g14
sg12
I2
sg10
I25
sg13
I1
sg11
I52
sg9
I53
sbag2
(g3
g4
(I54
I47
I52
I2
I00
I2
ttRp113
(dp114
g7
I00
sg8
g14
sg12
I2
sg10
I47
sg13
I2
sg11
I52
sg9
I54
sbag2
(g3
g4
(I55
I48
I52
I2
I00
I3
ttRp115
(dp116
g7
I00
sg8
g14
sg12
I2
sg10
I48
sg13
I3
sg11
I52
sg9
I55
sbag2
(g3
g4
(I56
I49
I52
I2
I00
I4
ttRp117
(dp118
g7
I00
sg8
g14
sg12
I2
sg10
I49
sg13
I4
sg11
I52
sg9
I56
sbag2
(g3
g4
(I57
I50
I52
I2
I00
I5
ttRp119
(dp120
g7
I00
sg8
g14
sg12
I2
sg10
I50
sg13
I5
sg11
I52
sg9
I57
sbag2
(g3
g4
(I58
I51
I52
I2
I00
I6
ttRp121
(dp122
g7
I00
sg8
g14
sg12
I2
sg10
I51
sg13
I6
sg11
I52
sg9
I58
sbag2
(g3
g4
(I59
I52
I52
I2
I00
I7
ttRp123
(dp124
g7
I00
sg8
g14
sg12
I2
sg10
I52
sg13
I7
sg11
I52
sg9
I59
sbag2
(g3
g4
(I60
I53
I52
I2
I00
I8
ttRp125
(dp126
g7
I00
sg8
g14
sg12
I2
sg10
I53
sg13
I8
sg11
I52
sg9
I60
sbag2
(g3
g4
(I62
I55
I49
I2
I00
I4
ttRp127
(dp128
g7
I00
sg8
g14
sg12
I2
sg10
I55
sg13
I4
sg11
I49
sg9
I62
sbag2
(g3
g4
(I63
I56
I62
I2
I00
I1
ttRp129
(dp130
g7
I00
sg8
g14
sg12
I2
sg10
I56
sg13
I1
sg11
I62
sg9
I63
sbag2
(g3
g4
(I64
I57
I62
I2
I00
I2
ttRp131
(dp132
g7
I00
sg8
g14
sg12
I2
sg10
I57
sg13
I2
sg11
I62
sg9
I64
sbag2
(g3
g4
(I65
I58
I62
I2
I00
I3
ttRp133
(dp134
g7
I00
sg8
g14
sg12
I2
sg10
I58
sg13
I3
sg11
I62
sg9
I65
sbag2
(g3
g4
(I66
I59
I62
I2
I00
I4
ttRp135
(dp136
g7
I00
sg8
g14
sg12
I2
sg10
I59
sg13
I4
sg11
I62
sg9
I66
sbag2
(g3
g4
(I97
I87
I96
I2
I00
I1
ttRp137
(dp138
g7
I00
sg8
g14
sg12
I2
sg10
I87
sg13
I1
sg11
I96
sg9
I97
sbag2
(g3
g4
(I98
I61
I96
I2
I00
I2
ttRp139
(dp140
g7
I00
sg8
g14
sg12
I2
sg10
I61
sg13
I2
sg11
I96
sg9
I98
sbag2
(g3
g4
(I99
I62
I96
I2
I00
I3
ttRp141
(dp142
g7
I00
sg8
g14
sg12
I2
sg10
I62
sg13
I3
sg11
I96
sg9
I99
sbag2
(g3
g4
(I100
I63
I96
I2
I00
I4
ttRp143
(dp144
g7
I00
sg8
g14
sg12
I2
sg10
I63
sg13
I4
sg11
I96
sg9
I100
sbag2
(g3
g4
(I101
I64
I96
I2
I00
I5
ttRp145
(dp146
g7
I00
sg8
g14
sg12
I2
sg10
I64
sg13
I5
sg11
I96
sg9
I101
sbag2
(g3
g4
(I102
I65
I96
I2
I00
I6
ttRp147
(dp148
g7
I00
sg8
g14
sg12
I2
sg10
I65
sg13
I6
sg11
I96
sg9
I102
sbag2
(g3
g4
(I103
I88
I96
I2
I00
I7
ttRp149
(dp150
g7
I00
sg8
g14
sg12
I2
sg10
I88
sg13
I7
sg11
I96
sg9
I103
sbag2
(g3
g4
(I104
I89
I96
I2
I00
I8
ttRp151
(dp152
g7
I00
sg8
g14
sg12
I2
sg10
I89
sg13
I8
sg11
I96
sg9
I104
sbag2
(g3
g4
(I105
I90
I96
I2
I00
I9
ttRp153
(dp154
g7
I00
sg8
g14
sg12
I2
sg10
I90
sg13
I9
sg11
I96
sg9
I105
sbag2
(g3
g4
(I106
I91
I96
I2
I00
I10
ttRp155
(dp156
g7
I00
sg8
g14
sg12
I2
sg10
I91
sg13
I10
sg11
I96
sg9
I106
sbag2
(g3
g4
(I107
I97
I96
I2
I00
I11
ttRp157
(dp158
g7
I00
sg8
g14
sg12
I2
sg10
I97
sg13
I11
sg11
I96
sg9
I107
sbag2
(g3
g4
(I108
I81
I96
I2
I00
I12
ttRp159
(dp160
g7
I00
sg8
g14
sg12
I2
sg10
I81
sg13
I12
sg11
I96
sg9
I108
sbag2
(g3
g4
(I109
I93
I96
I2
I00
I13
ttRp161
(dp162
g7
I00
sg8
g14
sg12
I2
sg10
I93
sg13
I13
sg11
I96
sg9
I109
sbag2
(g3
g4
(I110
I76
I96
I2
I00
I14
ttRp163
(dp164
g7
I00
sg8
g14
sg12
I2
sg10
I76
sg13
I14
sg11
I96
sg9
I110
sbag2
(g3
g4
(I111
I94
I96
I2
I00
I15
ttRp165
(dp166
g7
I00
sg8
g14
sg12
I2
sg10
I94
sg13
I15
sg11
I96
sg9
I111
sbag2
(g3
g4
(I112
I95
I96
I2
I00
I16
ttRp167
(dp168
g7
I00
sg8
g14
sg12
I2
sg10
I95
sg13
I16
sg11
I96
sg9
I112
sbag2
(g3
g4
(I113
I96
I62
I2
I00
I35
ttRp169
(dp170
g7
I00
sg8
g14
sg12
I2
sg10
I96
sg13
I35
sg11
I62
sg9
I113
sbag2
(g3
g4
(I114
I98
NI3
I00
I1
ttRp171
(dp172
g7
I00
sg8
g14
sg12
I3
sg10
I98
sg13
I1
sg11
Nsg9
I114
sbag2
(g3
g4
(I115
I99
NI3
I00
I2
ttRp173
(dp174
g7
I00
sg8
g14
sg12
I3
sg10
I99
sg13
I2
sg11
Nsg9
I115
sbag2
(g3
g4
(I116
I100
NI3
I00
I3
ttRp175
(dp176
g7
I00
sg8
g14
sg12
I3
sg10
I100
sg13
I3
sg11
Nsg9
I116
sbag2
(g3
g4
(I117
I101
NI3
I00
I4
ttRp177
(dp178
g7
I00
sg8
g14
sg12
I3
sg10
I101
sg13
I4
sg11
Nsg9
I117
sbag2
(g3
g4
(I118
I103
NI3
I00
I5
ttRp179
(dp180
g7
I00
sg8
g14
sg12
I3
sg10
I103
sg13
I5
sg11
Nsg9
I118
sbag2
(g3
g4
(I119
I104
NI3
I00
I6
ttRp181
(dp182
g7
I00
sg8
g14
sg12
I3
sg10
I104
sg13
I6
sg11
Nsg9
I119
sbag2
(g3
g4
(I120
I105
NI3
I00
I7
ttRp183
(dp184
g7
I00
sg8
g14
sg12
I3
sg10
I105
sg13
I7
sg11
Nsg9
I120
sbag2
(g3
g4
(I121
I106
NI3
I00
I8
ttRp185
(dp186
g7
I00
sg8
g14
sg12
I3
sg10
I106
sg13
I8
sg11
Nsg9
I121
sbag2
(g3
g4
(I122
I22
NI3
I00
I9
ttRp187
(dp188
g7
I00
sg8
g14
sg12
I3
sg10
I22
sg13
I9
sg11
Nsg9
I122
sbag2
(g3
g4
(I123
I107
NI3
I00
I10
ttRp189
(dp190
g7
I00
sg8
g14
sg12
I3
sg10
I107
sg13
I10
sg11
Nsg9
I123
sbag2
(g3
g4
(I124
I108
NI3
I00
I11
ttRp191
(dp192
g7
I00
sg8
g14
sg12
I3
sg10
I108
sg13
I11
sg11
Nsg9
I124
sbag2
(g3
g4
(I125
I10
NI3
I00
I12
ttRp193
(dp194
g7
I00
sg8
g14
sg12
I3
sg10
I10
sg13
I12
sg11
Nsg9
I125
sbag2
(g3
g4
(I126
I109
NI3
I00
I13
ttRp195
(dp196
g7
I00
sg8
g14
sg12
I3
sg10
I109
sg13
I13
sg11
Nsg9
I126
sbag2
(g3
g4
(I127
I110
NI3
I00
I14
ttRp197
(dp198
g7
I00
sg8
g14
sg12
I3
sg10
I110
sg13
I14
sg11
Nsg9
I127
sbag2
(g3
g4
(I128
I111
NI3
I00
I15
ttRp199
(dp200
g7
I00
sg8
g14
sg12
I3
sg10
I111
sg13
I15
sg11
Nsg9
I128
sbag2
(g3
g4
(I129
I112
NI3
I00
I16
ttRp201
(dp202
g7
I00
sg8
g14
sg12
I3
sg10
I112
sg13
I16
sg11
Nsg9
I129
sbag2
(g3
g4
(I130
I149
NI3
I00
I17
ttRp203
(dp204
g7
I00
sg8
g14
sg12
I3
sg10
I149
sg13
I17
sg11
Nsg9
I130
sbag2
(g3
g4
(I131
I113
NI3
I00
I18
ttRp205
(dp206
g7
I00
sg8
g14
sg12
I3
sg10
I113
sg13
I18
sg11
Nsg9
I131
sbag2
(g3
g4
(I132
I114
NI3
I00
I19
ttRp207
(dp208
g7
I00
sg8
g14
sg12
I3
sg10
I114
sg13
I19
sg11
Nsg9
I132
sbag2
(g3
g4
(I133
I115
NI3
I00
I20
ttRp209
(dp210
g7
I00
sg8
g14
sg12
I3
sg10
I115
sg13
I20
sg11
Nsg9
I133
sbag2
(g3
g4
(I134
I116
NI3
I00
I21
ttRp211
(dp212
g7
I00
sg8
g14
sg12
I3
sg10
I116
sg13
I21
sg11
Nsg9
I134
sbag2
(g3
g4
(I135
I117
NI3
I00
I22
ttRp213
(dp214
g7
I00
sg8
g14
sg12
I3
sg10
I117
sg13
I22
sg11
Nsg9
I135
sbag2
(g3
g4
(I136
I118
NI3
I00
I23
ttRp215
(dp216
g7
I00
sg8
g14
sg12
I3
sg10
I118
sg13
I23
sg11
Nsg9
I136
sbag2
(g3
g4
(I137
I119
NI3
I00
I24
ttRp217
(dp218
g7
I00
sg8
g14
sg12
I3
sg10
I119
sg13
I24
sg11
Nsg9
I137
sbag2
(g3
g4
(I138
I120
NI3
I00
I25
ttRp219
(dp220
g7
I00
sg8
g14
sg12
I3
sg10
I120
sg13
I25
sg11
Nsg9
I138
sbag2
(g3
g4
(I139
I121
NI3
I00
I26
ttRp221
(dp222
g7
I00
sg8
g14
sg12
I3
sg10
I121
sg13
I26
sg11
Nsg9
I139
sbag2
(g3
g4
(I140
I150
NI3
I00
I27
ttRp223
(dp224
g7
I00
sg8
g14
sg12
I3
sg10
I150
sg13
I27
sg11
Nsg9
I140
sbag2
(g3
g4
(I141
I122
NI3
I00
I28
ttRp225
(dp226
g7
I00
sg8
g14
sg12
I3
sg10
I122
sg13
I28
sg11
Nsg9
I141
sbag2
(g3
g4
(I142
I123
NI3
I00
I29
ttRp227
(dp228
g7
I00
sg8
g14
sg12
I3
sg10
I123
sg13
I29
sg11
Nsg9
I142
sbag2
(g3
g4
(I143
I124
NI3
I00
I30
ttRp229
(dp230
g7
I00
sg8
g14
sg12
I3
sg10
I124
sg13
I30
sg11
Nsg9
I143
sbag2
(g3
g4
(I144
I125
NI3
I00
I31
ttRp231
(dp232
g7
I00
sg8
g14
sg12
I3
sg10
I125
sg13
I31
sg11
Nsg9
I144
sbag2
(g3
g4
(I145
I126
NI3
I00
I32
ttRp233
(dp234
g7
I00
sg8
g14
sg12
I3
sg10
I126
sg13
I32
sg11
Nsg9
I145
sbag2
(g3
g4
(I146
I127
NI3
I00
I33
ttRp235
(dp236
g7
I00
sg8
g14
sg12
I3
sg10
I127
sg13
I33
sg11
Nsg9
I146
sbag2
(g3
g4
(I147
I128
NI3
I00
I34
ttRp237
(dp238
g7
I00
sg8
g14
sg12
I3
sg10
I128
sg13
I34
sg11
Nsg9
I147
sbag2
(g3
g4
(I148
I129
NI3
I00
I35
ttRp239
(dp240
g7
I00
sg8
g14
sg12
I3
sg10
I129
sg13
I35
sg11
Nsg9
I148
sbag2
(g3
g4
(I149
I130
NI3
I00
I36
ttRp241
(dp242
g7
I00
sg8
g14
sg12
I3
sg10
I130
sg13
I36
sg11
Nsg9
I149
sbag2
(g3
g4
(I150
I131
NI3
I00
I37
ttRp243
(dp244
g7
I00
sg8
g14
sg12
I3
sg10
I131
sg13
I37
sg11
Nsg9
I150
sbag2
(g3
g4
(I151
I151
NI3
I00
I38
ttRp245
(dp246
g7
I00
sg8
g14
sg12
I3
sg10
I151
sg13
I38
sg11
Nsg9
I151
sbag2
(g3
g4
(I152
I152
NI3
I00
I39
ttRp247
(dp248
g7
I00
sg8
g14
sg12
I3
sg10
I152
sg13
I39
sg11
Nsg9
I152
sbag2
(g3
g4
(I153
I132
NI3
I00
I40
ttRp249
(dp250
g7
I00
sg8
g14
sg12
I3
sg10
I132
sg13
I40
sg11
Nsg9
I153
sbag2
(g3
g4
(I154
I133
NI3
I00
I41
ttRp251
(dp252
g7
I00
sg8
g14
sg12
I3
sg10
I133
sg13
I41
sg11
Nsg9
I154
sbag2
(g3
g4
(I155
I134
NI3
I00
I42
ttRp253
(dp254
g7
I00
sg8
g14
sg12
I3
sg10
I134
sg13
I42
sg11
Nsg9
I155
sbag2
(g3
g4
(I156
I135
NI3
I00
I43
ttRp255
(dp256
g7
I00
sg8
g14
sg12
I3
sg10
I135
sg13
I43
sg11
Nsg9
I156
sbag2
(g3
g4
(I157
I136
NI3
I00
I44
ttRp257
(dp258
g7
I00
sg8
g14
sg12
I3
sg10
I136
sg13
I44
sg11
Nsg9
I157
sbag2
(g3
g4
(I158
I153
NI3
I00
I45
ttRp259
(dp260
g7
I00
sg8
g14
sg12
I3
sg10
I153
sg13
I45
sg11
Nsg9
I158
sbag2
(g3
g4
(I159
I154
NI3
I00
I46
ttRp261
(dp262
g7
I00
sg8
g14
sg12
I3
sg10
I154
sg13
I46
sg11
Nsg9
I159
sbag2
(g3
g4
(I160
I137
NI3
I00
I47
ttRp263
(dp264
g7
I00
sg8
g14
sg12
I3
sg10
I137
sg13
I47
sg11
Nsg9
I160
sbag2
(g3
g4
(I69
I62
I62
I2
I00
I7
ttRp265
(dp266
g7
I00
sg8
g14
sg12
I2
sg10
I62
sg13
I7
sg11
I62
sg9
I69
sbag2
(g3
g4
(I70
I63
I62
I2
I00
I8
ttRp267
(dp268
g7
I00
sg8
g14
sg12
I2
sg10
I63
sg13
I8
sg11
I62
sg9
I70
sbag2
(g3
g4
(I71
I64
I62
I2
I00
I9
ttRp269
(dp270
g7
I00
sg8
g14
sg12
I2
sg10
I64
sg13
I9
sg11
I62
sg9
I71
sbag2
(g3
g4
(I72
I65
I62
I2
I00
I10
ttRp271
(dp272
g7
I00
sg8
g14
sg12
I2
sg10
I65
sg13
I10
sg11
I62
sg9
I72
sbag2
(g3
g4
(I73
I66
I62
I2
I00
I12
ttRp273
(dp274
g7
I00
sg8
g14
sg12
I2
sg10
I66
sg13
I12
sg11
I62
sg9
I73
sbag2
(g3
g4
(I74
I67
I62
I2
I00
I13
ttRp275
(dp276
g7
I00
sg8
g14
sg12
I2
sg10
I67
sg13
I13
sg11
I62
sg9
I74
sbag2
(g3
g4
(I75
I68
I62
I2
I00
I14
ttRp277
(dp278
g7
I00
sg8
g14
sg12
I2
sg10
I68
sg13
I14
sg11
I62
sg9
I75
sbag2
(g3
g4
(I76
I69
I62
I2
I00
I15
ttRp279
(dp280
g7
I00
sg8
g14
sg12
I2
sg10
I69
sg13
I15
sg11
I62
sg9
I76
sbag2
(g3
g4
(I77
I70
I62
I2
I00
I16
ttRp281
(dp282
g7
I00
sg8
g14
sg12
I2
sg10
I70
sg13
I16
sg11
I62
sg9
I77
sbag2
(g3
g4
(I78
I71
I62
I2
I00
I17
ttRp283
(dp284
g7
I00
sg8
g14
sg12
I2
sg10
I71
sg13
I17
sg11
I62
sg9
I78
sbag2
(g3
g4
(I79
I72
I62
I2
I00
I18
ttRp285
(dp286
g7
I00
sg8
g14
sg12
I2
sg10
I72
sg13
I18
sg11
I62
sg9
I79
sbag2
(g3
g4
(I80
I73
I62
I2
I00
I19
ttRp287
(dp288
g7
I00
sg8
g14
sg12
I2
sg10
I73
sg13
I19
sg11
I62
sg9
I80
sbag2
(g3
g4
(I82
I75
I62
I2
I00
I21
ttRp289
(dp290
g7
I00
sg8
g14
sg12
I2
sg10
I75
sg13
I21
sg11
I62
sg9
I82
sbag2
(g3
g4
(I83
I76
I62
I2
I00
I22
ttRp291
(dp292
g7
I00
sg8
g14
sg12
I2
sg10
I76
sg13
I22
sg11
I62
sg9
I83
sbag2
(g3
g4
(I84
I77
I62
I2
I00
I23
ttRp293
(dp294
g7
I00
sg8
g14
sg12
I2
sg10
I77
sg13
I23
sg11
I62
sg9
I84
sbag2
(g3
g4
(I85
I78
I62
I2
I00
I24
ttRp295
(dp296
g7
I00
sg8
g14
sg12
I2
sg10
I78
sg13
I24
sg11
I62
sg9
I85
sbag2
(g3
g4
(I86
I79
I62
I2
I00
I25
ttRp297
(dp298
g7
I00
sg8
g14
sg12
I2
sg10
I79
sg13
I25
sg11
I62
sg9
I86
sbag2
(g3
g4
(I87
I80
I62
I2
I00
I26
ttRp299
(dp300
g7
I00
sg8
g14
sg12
I2
sg10
I80
sg13
I26
sg11
I62
sg9
I87
sbag2
(g3
g4
(I88
I81
I62
I2
I00
I27
ttRp301
(dp302
g7
I00
sg8
g14
sg12
I2
sg10
I81
sg13
I27
sg11
I62
sg9
I88
sbag2
(g3
g4
(I89
I82
I62
I2
I00
I28
ttRp303
(dp304
g7
I00
sg8
g14
sg12
I2
sg10
I82
sg13
I28
sg11
I62
sg9
I89
sbag2
(g3
g4
(I90
I83
I62
I2
I00
I29
ttRp305
(dp306
g7
I00
sg8
g14
sg12
I2
sg10
I83
sg13
I29
sg11
I62
sg9
I90
sbag2
(g3
g4
(I91
I84
I62
I2
I00
I30
ttRp307
(dp308
g7
I00
sg8
g14
sg12
I2
sg10
I84
sg13
I30
sg11
I62
sg9
I91
sbag2
(g3
g4
(I92
I85
I62
I2
I00
I31
ttRp309
(dp310
g7
I00
sg8
g14
sg12
I2
sg10
I85
sg13
I31
sg11
I62
sg9
I92
sbag2
(g3
g4
(I93
I40
I62
I2
I00
I32
ttRp311
(dp312
g7
I00
sg8
g14
sg12
I2
sg10
I40
sg13
I32
sg11
I62
sg9
I93
sbag2
(g3
g4
(I95
I42
I62
I2
I00
I34
ttRp313
(dp314
g7
I00
sg8
g14
sg12
I2
sg10
I42
sg13
I34
sg11
I62
sg9
I95
sbag2
(g3
g4
(I96
I86
I62
I2
I00
I35
ttRp315
(dp316
g7
I00
sg8
g14
sg12
I2
sg10
I86
sg13
I35
sg11
I62
sg9
I96
sbag2
(g3
g4
(I67
I60
I62
I2
I00
I5
ttRp317
(dp318
g7
I00
sg8
g14
sg12
I2
sg10
I60
sg13
I5
sg11
I62
sg9
I67
sbag2
(g3
g4
(I161
I138
NI3
I00
I48
ttRp319
(dp320
g7
I00
sg8
g14
sg12
I3
sg10
I138
sg13
I48
sg11
Nsg9
I161
sbag2
(g3
g4
(I162
I97
NI3
I00
I49
ttRp321
(dp322
g7
I00
sg8
g14
sg12
I3
sg10
I97
sg13
I49
sg11
Nsg9
I162
sbag2
(g3
g4
(I163
I139
NI3
I00
I50
ttRp323
(dp324
g7
I00
sg8
g14
sg12
I3
sg10
I139
sg13
I50
sg11
Nsg9
I163
sbag2
(g3
g4
(I164
I140
NI3
I00
I51
ttRp325
(dp326
g7
I00
sg8
g14
sg12
I3
sg10
I140
sg13
I51
sg11
Nsg9
I164
sbag2
(g3
g4
(I165
I141
NI3
I00
I52
ttRp327
(dp328
g7
I00
sg8
g14
sg12
I3
sg10
I141
sg13
I52
sg11
Nsg9
I165
sbag2
(g3
g4
(I166
I142
NI3
I00
I53
ttRp329
(dp330
g7
I00
sg8
g14
sg12
I3
sg10
I142
sg13
I53
sg11
Nsg9
I166
sbag2
(g3
g4
(I167
I143
NI3
I00
I54
ttRp331
(dp332
g7
I00
sg8
g14
sg12
I3
sg10
I143
sg13
I54
sg11
Nsg9
I167
sbag2
(g3
g4
(I168
I144
NI3
I00
I55
ttRp333
(dp334
g7
I00
sg8
g14
sg12
I3
sg10
I144
sg13
I55
sg11
Nsg9
I168
sbag2
(g3
g4
(I169
I145
NI3
I00
I56
ttRp335
(dp336
g7
I00
sg8
g14
sg12
I3
sg10
I145
sg13
I56
sg11
Nsg9
I169
sbag2
(g3
g4
(I170
I146
NI3
I00
I57
ttRp337
(dp338
g7
I00
sg8
g14
sg12
I3
sg10
I146
sg13
I57
sg11
Nsg9
I170
sbag2
(g3
g4
(I171
I147
NI3
I00
I58
ttRp339
(dp340
g7
I00
sg8
g14
sg12
I3
sg10
I147
sg13
I58
sg11
Nsg9
I171
sbag2
(g3
g4
(I172
I148
NI3
I00
I59
ttRp341
(dp342
g7
I00
sg8
g14
sg12
I3
sg10
I148
sg13
I59
sg11
Nsg9
I172
sbag2
(g3
g4
(I173
I102
NI3
I00
I60
ttRp343
(dp344
g7
I00
sg8
g14
sg12
I3
sg10
I102
sg13
I60
sg11
Nsg9
I173
sbag2
(g3
g4
(I176
I98
NI4
I00
I1
ttRp345
(dp346
g7
I00
sg8
g14
sg12
I4
sg10
I98
sg13
I1
sg11
Nsg9
I176
sbag2
(g3
g4
(I177
I99
NI4
I00
I2
ttRp347
(dp348
g7
I00
sg8
g14
sg12
I4
sg10
I99
sg13
I2
sg11
Nsg9
I177
sbag2
(g3
g4
(I178
I100
NI4
I00
I3
ttRp349
(dp350
g7
I00
sg8
g14
sg12
I4
sg10
I100
sg13
I3
sg11
Nsg9
I178
sbag2
(g3
g4
(I179
I101
NI4
I00
I4
ttRp351
(dp352
g7
I00
sg8
g14
sg12
I4
sg10
I101
sg13
I4
sg11
Nsg9
I179
sbag2
(g3
g4
(I180
I103
NI4
I00
I5
ttRp353
(dp354
g7
I00
sg8
g14
sg12
I4
sg10
I103
sg13
I5
sg11
Nsg9
I180
sbag2
(g3
g4
(I181
I104
NI4
I00
I6
ttRp355
(dp356
g7
I00
sg8
g14
sg12
I4
sg10
I104
sg13
I6
sg11
Nsg9
I181
sbag2
(g3
g4
(I182
I105
NI4
I00
I7
ttRp357
(dp358
g7
I00
sg8
g14
sg12
I4
sg10
I105
sg13
I7
sg11
Nsg9
I182
sbag2
(g3
g4
(I183
I106
NI4
I00
I8
ttRp359
(dp360
g7
I00
sg8
g14
sg12
I4
sg10
I106
sg13
I8
sg11
Nsg9
I183
sbag2
(g3
g4
(I184
I22
NI4
I00
I9
ttRp361
(dp362
g7
I00
sg8
g14
sg12
I4
sg10
I22
sg13
I9
sg11
Nsg9
I184
sbag2
(g3
g4
(I185
I107
NI4
I00
I10
ttRp363
(dp364
g7
I00
sg8
g14
sg12
I4
sg10
I107
sg13
I10
sg11
Nsg9
I185
sbag2
(g3
g4
(I186
I108
NI4
I00
I11
ttRp365
(dp366
g7
I00
sg8
g14
sg12
I4
sg10
I108
sg13
I11
sg11
Nsg9
I186
sbag2
(g3
g4
(I187
I10
NI4
I00
I12
ttRp367
(dp368
g7
I00
sg8
g14
sg12
I4
sg10
I10
sg13
I12
sg11
Nsg9
I187
sbag2
(g3
g4
(I188
I109
NI4
I00
I13
ttRp369
(dp370
g7
I00
sg8
g14
sg12
I4
sg10
I109
sg13
I13
sg11
Nsg9
I188
sbag2
(g3
g4
(I189
I110
NI4
I00
I14
ttRp371
(dp372
g7
I00
sg8
g14
sg12
I4
sg10
I110
sg13
I14
sg11
Nsg9
I189
sbag2
(g3
g4
(I190
I111
NI4
I00
I15
ttRp373
(dp374
g7
I00
sg8
g14
sg12
I4
sg10
I111
sg13
I15
sg11
Nsg9
I190
sbag2
(g3
g4
(I191
I112
NI4
I00
I16
ttRp375
(dp376
g7
I00
sg8
g14
sg12
I4
sg10
I112
sg13
I16
sg11
Nsg9
I191
sbag2
(g3
g4
(I192
I149
NI4
I00
I17
ttRp377
(dp378
g7
I00
sg8
g14
sg12
I4
sg10
I149
sg13
I17
sg11
Nsg9
I192
sbag2
(g3
g4
(I193
I113
NI4
I00
I18
ttRp379
(dp380
g7
I00
sg8
g14
sg12
I4
sg10
I113
sg13
I18
sg11
Nsg9
I193
sbag2
(g3
g4
(I194
I114
NI4
I00
I19
ttRp381
(dp382
g7
I00
sg8
g14
sg12
I4
sg10
I114
sg13
I19
sg11
Nsg9
I194
sbag2
(g3
g4
(I195
I115
NI4
I00
I20
ttRp383
(dp384
g7
I00
sg8
g14
sg12
I4
sg10
I115
sg13
I20
sg11
Nsg9
I195
sbag2
(g3
g4
(I196
I116
NI4
I00
I21
ttRp385
(dp386
g7
I00
sg8
g14
sg12
I4
sg10
I116
sg13
I21
sg11
Nsg9
I196
sbag2
(g3
g4
(I197
I117
NI4
I00
I22
ttRp387
(dp388
g7
I00
sg8
g14
sg12
I4
sg10
I117
sg13
I22
sg11
Nsg9
I197
sbag2
(g3
g4
(I198
I118
NI4
I00
I23
ttRp389
(dp390
g7
I00
sg8
g14
sg12
I4
sg10
I118
sg13
I23
sg11
Nsg9
I198
sbag2
(g3
g4
(I199
I119
NI4
I00
I24
ttRp391
(dp392
g7
I00
sg8
g14
sg12
I4
sg10
I119
sg13
I24
sg11
Nsg9
I199
sbag2
(g3
g4
(I200
I120
NI4
I00
I25
ttRp393
(dp394
g7
I00
sg8
g14
sg12
I4
sg10
I120
sg13
I25
sg11
Nsg9
I200
sbag2
(g3
g4
(I201
I121
NI4
I00
I26
ttRp395
(dp396
g7
I00
sg8
g14
sg12
I4
sg10
I121
sg13
I26
sg11
Nsg9
I201
sbag2
(g3
g4
(I202
I150
NI4
I00
I27
ttRp397
(dp398
g7
I00
sg8
g14
sg12
I4
sg10
I150
sg13
I27
sg11
Nsg9
I202
sbag2
(g3
g4
(I203
I122
NI4
I00
I28
ttRp399
(dp400
g7
I00
sg8
g14
sg12
I4
sg10
I122
sg13
I28
sg11
Nsg9
I203
sbag2
(g3
g4
(I204
I123
NI4
I00
I29
ttRp401
(dp402
g7
I00
sg8
g14
sg12
I4
sg10
I123
sg13
I29
sg11
Nsg9
I204
sbag2
(g3
g4
(I205
I124
NI4
I00
I30
ttRp403
(dp404
g7
I00
sg8
g14
sg12
I4
sg10
I124
sg13
I30
sg11
Nsg9
I205
sbag2
(g3
g4
(I206
I125
NI4
I00
I31
ttRp405
(dp406
g7
I00
sg8
g14
sg12
I4
sg10
I125
sg13
I31
sg11
Nsg9
I206
sbag2
(g3
g4
(I207
I126
NI4
I00
I32
ttRp407
(dp408
g7
I00
sg8
g14
sg12
I4
sg10
I126
sg13
I32
sg11
Nsg9
I207
sbag2
(g3
g4
(I208
I127
NI4
I00
I33
ttRp409
(dp410
g7
I00
sg8
g14
sg12
I4
sg10
I127
sg13
I33
sg11
Nsg9
I208
sbag2
(g3
g4
(I209
I128
NI4
I00
I34
ttRp411
(dp412
g7
I00
sg8
g14
sg12
I4
sg10
I128
sg13
I34
sg11
Nsg9
I209
sbag2
(g3
g4
(I210
I129
NI4
I00
I35
ttRp413
(dp414
g7
I00
sg8
g14
sg12
I4
sg10
I129
sg13
I35
sg11
Nsg9
I210
sbag2
(g3
g4
(I211
I130
NI4
I00
I36
ttRp415
(dp416
g7
I00
sg8
g14
sg12
I4
sg10
I130
sg13
I36
sg11
Nsg9
I211
sbag2
(g3
g4
(I212
I131
NI4
I00
I37
ttRp417
(dp418
g7
I00
sg8
g14
sg12
I4
sg10
I131
sg13
I37
sg11
Nsg9
I212
sbag2
(g3
g4
(I213
I151
NI4
I00
I38
ttRp419
(dp420
g7
I00
sg8
g14
sg12
I4
sg10
I151
sg13
I38
sg11
Nsg9
I213
sbag2
(g3
g4
(I214
I152
NI4
I00
I39
ttRp421
(dp422
g7
I00
sg8
g14
sg12
I4
sg10
I152
sg13
I39
sg11
Nsg9
I214
sbag2
(g3
g4
(I215
I132
NI4
I00
I40
ttRp423
(dp424
g7
I00
sg8
g14
sg12
I4
sg10
I132
sg13
I40
sg11
Nsg9
I215
sbag2
(g3
g4
(I216
I133
NI4
I00
I41
ttRp425
(dp426
g7
I00
sg8
g14
sg12
I4
sg10
I133
sg13
I41
sg11
Nsg9
I216
sbag2
(g3
g4
(I217
I134
NI4
I00
I42
ttRp427
(dp428
g7
I00
sg8
g14
sg12
I4
sg10
I134
sg13
I42
sg11
Nsg9
I217
sbag2
(g3
g4
(I218
I135
NI4
I00
I43
ttRp429
(dp430
g7
I00
sg8
g14
sg12
I4
sg10
I135
sg13
I43
sg11
Nsg9
I218
sbag2
(g3
g4
(I219
I136
NI4
I00
I44
ttRp431
(dp432
g7
I00
sg8
g14
sg12
I4
sg10
I136
sg13
I44
sg11
Nsg9
I219
sbag2
(g3
g4
(I220
I153
NI4
I00
I45
ttRp433
(dp434
g7
I00
sg8
g14
sg12
I4
sg10
I153
sg13
I45
sg11
Nsg9
I220
sbag2
(g3
g4
(I221
I154
NI4
I00
I46
ttRp435
(dp436
g7
I00
sg8
g14
sg12
I4
sg10
I154
sg13
I46
sg11
Nsg9
I221
sbag2
(g3
g4
(I222
I137
NI4
I00
I47
ttRp437
(dp438
g7
I00
sg8
g14
sg12
I4
sg10
I137
sg13
I47
sg11
Nsg9
I222
sbag2
(g3
g4
(I223
I138
NI4
I00
I48
ttRp439
(dp440
g7
I00
sg8
g14
sg12
I4
sg10
I138
sg13
I48
sg11
Nsg9
I223
sbag2
(g3
g4
(I224
I97
NI4
I00
I49
ttRp441
(dp442
g7
I00
sg8
g14
sg12
I4
sg10
I97
sg13
I49
sg11
Nsg9
I224
sbag2
(g3
g4
(I225
I139
NI4
I00
I50
ttRp443
(dp444
g7
I00
sg8
g14
sg12
I4
sg10
I139
sg13
I50
sg11
Nsg9
I225
sbag2
(g3
g4
(I226
I140
NI4
I00
I51
ttRp445
(dp446
g7
I00
sg8
g14
sg12
I4
sg10
I140
sg13
I51
sg11
Nsg9
I226
sbag2
(g3
g4
(I227
I141
NI4
I00
I52
ttRp447
(dp448
g7
I00
sg8
g14
sg12
I4
sg10
I141
sg13
I52
sg11
Nsg9
I227
sbag2
(g3
g4
(I228
I142
NI4
I00
I53
ttRp449
(dp450
g7
I00
sg8
g14
sg12
I4
sg10
I142
sg13
I53
sg11
Nsg9
I228
sbag2
(g3
g4
(I229
I143
NI4
I00
I54
ttRp451
(dp452
g7
I00
sg8
g14
sg12
I4
sg10
I143
sg13
I54
sg11
Nsg9
I229
sbag2
(g3
g4
(I230
I144
NI4
I00
I55
ttRp453
(dp454
g7
I00
sg8
g14
sg12
I4
sg10
I144
sg13
I55
sg11
Nsg9
I230
sbag2
(g3
g4
(I231
I145
NI4
I00
I56
ttRp455
(dp456
g7
I00
sg8
g14
sg12
I4
sg10
I145
sg13
I56
sg11
Nsg9
I231
sbag2
(g3
g4
(I232
I146
NI4
I00
I57
ttRp457
(dp458
g7
I00
sg8
g14
sg12
I4
sg10
I146
sg13
I57
sg11
Nsg9
I232
sbag2
(g3
g4
(I233
I147
NI4
I00
I58
ttRp459
(dp460
g7
I00
sg8
g14
sg12
I4
sg10
I147
sg13
I58
sg11
Nsg9
I233
sbag2
(g3
g4
(I234
I148
NI4
I00
I59
ttRp461
(dp462
g7
I00
sg8
g14
sg12
I4
sg10
I148
sg13
I59
sg11
Nsg9
I234
sbag2
(g3
g4
(I235
I102
NI4
I00
I60
ttRp463
(dp464
g7
I00
sg8
g14
sg12
I4
sg10
I102
sg13
I60
sg11
Nsg9
I235
sbag2
(g3
g4
(I236
I81
NI4
I00
I61
ttRp465
(dp466
g7
I00
sg8
g14
sg12
I4
sg10
I81
sg13
I61
sg11
Nsg9
I236
sbag2
(g3
g4
(I81
I74
I62
I2
I00
I20
ttRp467
(dp468
g7
I00
sg8
g14
sg12
I2
sg10
I74
sg13
I20
sg11
I62
sg9
I81
sbag2
(g3
g4
(I94
I41
I62
I2
I00
I33
ttRp469
(dp470
g7
I00
sg8
g14
sg12
I2
sg10
I41
sg13
I33
sg11
I62
sg9
I94
sbag2
(g3
g4
(I68
I61
I62
I2
I00
I6
ttRp471
(dp472
g7
I00
sg8
g14
sg12
I2
sg10
I61
sg13
I6
sg11
I62
sg9
I68
sbag2
(g3
g4
(I61
I54
I62
I2
I00
I11
ttRp473
(dp474
g7
I00
sg8
g14
sg12
I2
sg10
I54
sg13
I11
sg11
I62
sg9
I61
sba.