(lp1
ccopy_reg
_reconstructor
p2
(csqlalchemy.util._collections
KeyedTuple
p3
c__builtin__
tuple
p4
(L1L
L1L
NL1L
I00
L1L
ttRp5
(dp6
S'is_necessary'
p7
I00
sS'_labels'
p8
(S'id'
p9
S'tag_id'
p10
S'parent_id'
p11
S'template_type_id'
p12
g7
S'ordernum'
p13
tp14
sg12
L1L
sg10
L1L
sg13
L1L
sg11
Nsg9
L1L
sbag2
(g3
g4
(L2L
L2L
L1L
L1L
I00
L1L
ttRp15
(dp16
g7
I00
sg8
g14
sg12
L1L
sg10
L2L
sg13
L1L
sg11
L1L
sg9
L2L
sbag2
(g3
g4
(L3L
L3L
L2L
L1L
I00
L1L
ttRp17
(dp18
g7
I00
sg8
g14
sg12
L1L
sg10
L3L
sg13
L1L
sg11
L2L
sg9
L3L
sbag2
(g3
g4
(L4L
L4L
L2L
L1L
I00
L2L
ttRp19
(dp20
g7
I00
sg8
g14
sg12
L1L
sg10
L4L
sg13
L2L
sg11
L2L
sg9
L4L
sbag2
(g3
g4
(L5L
L5L
L2L
L1L
I00
L3L
ttRp21
(dp22
g7
I00
sg8
g14
sg12
L1L
sg10
L5L
sg13
L3L
sg11
L2L
sg9
L5L
sbag2
(g3
g4
(L6L
L6L
L2L
L1L
I00
L4L
ttRp23
(dp24
g7
I00
sg8
g14
sg12
L1L
sg10
L6L
sg13
L4L
sg11
L2L
sg9
L6L
sbag2
(g3
g4
(L7L
L7L
L1L
L1L
I00
L2L
ttRp25
(dp26
g7
I00
sg8
g14
sg12
L1L
sg10
L7L
sg13
L2L
sg11
L1L
sg9
L7L
sbag2
(g3
g4
(L11L
L25L
L7L
L1L
I00
L1L
ttRp27
(dp28
g7
I00
sg8
g14
sg12
L1L
sg10
L25L
sg13
L1L
sg11
L7L
sg9
L11L
sbag2
(g3
g4
(L12L
L8L
L7L
L1L
I00
L2L
ttRp29
(dp30
g7
I00
sg8
g14
sg12
L1L
sg10
L8L
sg13
L2L
sg11
L7L
sg9
L12L
sbag2
(g3
g4
(L13L
L9L
L7L
L1L
I00
L3L
ttRp31
(dp32
g7
I00
sg8
g14
sg12
L1L
sg10
L9L
sg13
L3L
sg11
L7L
sg9
L13L
sbag2
(g3
g4
(L14L
L10L
L7L
L1L
I00
L4L
ttRp33
(dp34
g7
I00
sg8
g14
sg12
L1L
sg10
L10L
sg13
L4L
sg11
L7L
sg9
L14L
sbag2
(g3
g4
(L15L
L11L
L7L
L1L
I00
L5L
ttRp35
(dp36
g7
I00
sg8
g14
sg12
L1L
sg10
L11L
sg13
L5L
sg11
L7L
sg9
L15L
sbag2
(g3
g4
(L16L
L12L
L7L
L1L
I00
L6L
ttRp37
(dp38
g7
I00
sg8
g14
sg12
L1L
sg10
L12L
sg13
L6L
sg11
L7L
sg9
L16L
sbag2
(g3
g4
(L17L
L13L
L7L
L1L
I00
L7L
ttRp39
(dp40
g7
I00
sg8
g14
sg12
L1L
sg10
L13L
sg13
L7L
sg11
L7L
sg9
L17L
sbag2
(g3
g4
(L18L
L14L
L7L
L1L
I00
L8L
ttRp41
(dp42
g7
I00
sg8
g14
sg12
L1L
sg10
L14L
sg13
L8L
sg11
L7L
sg9
L18L
sbag2
(g3
g4
(L19L
L15L
L7L
L1L
I00
L9L
ttRp43
(dp44
g7
I00
sg8
g14
sg12
L1L
sg10
L15L
sg13
L9L
sg11
L7L
sg9
L19L
sbag2
(g3
g4
(L20L
L16L
L7L
L1L
I00
L10L
ttRp45
(dp46
g7
I00
sg8
g14
sg12
L1L
sg10
L16L
sg13
L10L
sg11
L7L
sg9
L20L
sbag2
(g3
g4
(L21L
L17L
L7L
L1L
I00
L11L
ttRp47
(dp48
g7
I00
sg8
g14
sg12
L1L
sg10
L17L
sg13
L11L
sg11
L7L
sg9
L21L
sbag2
(g3
g4
(L22L
L18L
L7L
L1L
I00
L12L
ttRp49
(dp50
g7
I00
sg8
g14
sg12
L1L
sg10
L18L
sg13
L12L
sg11
L7L
sg9
L22L
sbag2
(g3
g4
(L23L
L19L
L7L
L1L
I00
L13L
ttRp51
(dp52
g7
I00
sg8
g14
sg12
L1L
sg10
L19L
sg13
L13L
sg11
L7L
sg9
L23L
sbag2
(g3
g4
(L24L
L20L
L7L
L1L
I00
L14L
ttRp53
(dp54
g7
I00
sg8
g14
sg12
L1L
sg10
L20L
sg13
L14L
sg11
L7L
sg9
L24L
sbag2
(g3
g4
(L25L
L21L
L7L
L1L
I00
L15L
ttRp55
(dp56
g7
I00
sg8
g14
sg12
L1L
sg10
L21L
sg13
L15L
sg11
L7L
sg9
L25L
sbag2
(g3
g4
(L26L
L22L
L7L
L1L
I00
L16L
ttRp57
(dp58
g7
I00
sg8
g14
sg12
L1L
sg10
L22L
sg13
L16L
sg11
L7L
sg9
L26L
sbag2
(g3
g4
(L27L
L26L
L7L
L1L
I00
L17L
ttRp59
(dp60
g7
I00
sg8
g14
sg12
L1L
sg10
L26L
sg13
L17L
sg11
L7L
sg9
L27L
sbag2
(g3
g4
(L28L
L23L
L7L
L1L
I00
L18L
ttRp61
(dp62
g7
I00
sg8
g14
sg12
L1L
sg10
L23L
sg13
L18L
sg11
L7L
sg9
L28L
sbag2
(g3
g4
(L29L
L24L
L7L
L1L
I00
L19L
ttRp63
(dp64
g7
I00
sg8
g14
sg12
L1L
sg10
L24L
sg13
L19L
sg11
L7L
sg9
L29L
sbag2
(g3
g4
(L30L
L27L
NL2L
I00
L1L
ttRp65
(dp66
g7
I00
sg8
g14
sg12
L2L
sg10
L27L
sg13
L1L
sg11
Nsg9
L30L
sbag2
(g3
g4
(L31L
L28L
L30L
L2L
I00
L1L
ttRp67
(dp68
g7
I00
sg8
g14
sg12
L2L
sg10
L28L
sg13
L1L
sg11
L30L
sg9
L31L
sbag2
(g3
g4
(L32L
L4L
L31L
L2L
I00
L1L
ttRp69
(dp70
g7
I00
sg8
g14
sg12
L2L
sg10
L4L
sg13
L1L
sg11
L31L
sg9
L32L
sbag2
(g3
g4
(L33L
L3L
L31L
L2L
I00
L2L
ttRp71
(dp72
g7
I00
sg8
g14
sg12
L2L
sg10
L3L
sg13
L2L
sg11
L31L
sg9
L33L
sbag2
(g3
g4
(L34L
L5L
L31L
L2L
I00
L3L
ttRp73
(dp74
g7
I00
sg8
g14
sg12
L2L
sg10
L5L
sg13
L3L
sg11
L31L
sg9
L34L
sbag2
(g3
g4
(L35L
L29L
L30L
L2L
I00
L2L
ttRp75
(dp76
g7
I00
sg8
g14
sg12
L2L
sg10
L29L
sg13
L2L
sg11
L30L
sg9
L35L
sbag2
(g3
g4
(L36L
L30L
L35L
L2L
I00
L1L
ttRp77
(dp78
g7
I00
sg8
g14
sg12
L2L
sg10
L30L
sg13
L1L
sg11
L35L
sg9
L36L
sbag2
(g3
g4
(L37L
L31L
L35L
L2L
I00
L2L
ttRp79
(dp80
g7
I00
sg8
g14
sg12
L2L
sg10
L31L
sg13
L2L
sg11
L35L
sg9
L37L
sbag2
(g3
g4
(L38L
L32L
L35L
L2L
I00
L3L
ttRp81
(dp82
g7
I00
sg8
g14
sg12
L2L
sg10
L32L
sg13
L3L
sg11
L35L
sg9
L38L
sbag2
(g3
g4
(L39L
L33L
L35L
L2L
I00
L4L
ttRp83
(dp84
g7
I00
sg8
g14
sg12
L2L
sg10
L33L
sg13
L4L
sg11
L35L
sg9
L39L
sbag2
(g3
g4
(L40L
L34L
L35L
L2L
I00
L5L
ttRp85
(dp86
g7
I00
sg8
g14
sg12
L2L
sg10
L34L
sg13
L5L
sg11
L35L
sg9
L40L
sbag2
(g3
g4
(L41L
L35L
L35L
L2L
I00
L6L
ttRp87
(dp88
g7
I00
sg8
g14
sg12
L2L
sg10
L35L
sg13
L6L
sg11
L35L
sg9
L41L
sbag2
(g3
g4
(L42L
L36L
L35L
L2L
I00
L7L
ttRp89
(dp90
g7
I00
sg8
g14
sg12
L2L
sg10
L36L
sg13
L7L
sg11
L35L
sg9
L42L
sbag2
(g3
g4
(L43L
L37L
L35L
L2L
I00
L8L
ttRp91
(dp92
g7
I00
sg8
g14
sg12
L2L
sg10
L37L
sg13
L8L
sg11
L35L
sg9
L43L
sbag2
(g3
g4
(L44L
L38L
L35L
L2L
I00
L9L
ttRp93
(dp94
g7
I00
sg8
g14
sg12
L2L
sg10
L38L
sg13
L9L
sg11
L35L
sg9
L44L
sbag2
(g3
g4
(L45L
L39L
L35L
L2L
I00
L10L
ttRp95
(dp96
g7
I00
sg8
g14
sg12
L2L
sg10
L39L
sg13
L10L
sg11
L35L
sg9
L45L
sbag2
(g3
g4
(L46L
L40L
L35L
L2L
I00
L11L
ttRp97
(dp98
g7
I00
sg8
g14
sg12
L2L
sg10
L40L
sg13
L11L
sg11
L35L
sg9
L46L
sbag2
(g3
g4
(L47L
L41L
L35L
L2L
I00
L12L
ttRp99
(dp100
g7
I00
sg8
g14
sg12
L2L
sg10
L41L
sg13
L12L
sg11
L35L
sg9
L47L
sbag2
(g3
g4
(L48L
L42L
L35L
L2L
I00
L13L
ttRp101
(dp102
g7
I00
sg8
g14
sg12
L2L
sg10
L42L
sg13
L13L
sg11
L35L
sg9
L48L
sbag2
(g3
g4
(L49L
L43L
L30L
L2L
I00
L3L
ttRp103
(dp104
g7
I00
sg8
g14
sg12
L2L
sg10
L43L
sg13
L3L
sg11
L30L
sg9
L49L
sbag2
(g3
g4
(L50L
L44L
L49L
L2L
I00
L1L
ttRp105
(dp106
g7
I00
sg8
g14
sg12
L2L
sg10
L44L
sg13
L1L
sg11
L49L
sg9
L50L
sbag2
(g3
g4
(L51L
L45L
L49L
L2L
I00
L2L
ttRp107
(dp108
g7
I00
sg8
g14
sg12
L2L
sg10
L45L
sg13
L2L
sg11
L49L
sg9
L51L
sbag2
(g3
g4
(L52L
L46L
L49L
L2L
I00
L3L
ttRp109
(dp110
g7
I00
sg8
g14
sg12
L2L
sg10
L46L
sg13
L3L
sg11
L49L
sg9
L52L
sbag2
(g3
g4
(L53L
L25L
L52L
L2L
I00
L1L
ttRp111
(dp112
g7
I00
sg8
g14
sg12
L2L
sg10
L25L
sg13
L1L
sg11
L52L
sg9
L53L
sbag2
(g3
g4
(L54L
L47L
L52L
L2L
I00
L2L
ttRp113
(dp114
g7
I00
sg8
g14
sg12
L2L
sg10
L47L
sg13
L2L
sg11
L52L
sg9
L54L
sbag2
(g3
g4
(L55L
L48L
L52L
L2L
I00
L3L
ttRp115
(dp116
g7
I00
sg8
g14
sg12
L2L
sg10
L48L
sg13
L3L
sg11
L52L
sg9
L55L
sbag2
(g3
g4
(L56L
L49L
L52L
L2L
I00
L4L
ttRp117
(dp118
g7
I00
sg8
g14
sg12
L2L
sg10
L49L
sg13
L4L
sg11
L52L
sg9
L56L
sbag2
(g3
g4
(L57L
L50L
L52L
L2L
I00
L5L
ttRp119
(dp120
g7
I00
sg8
g14
sg12
L2L
sg10
L50L
sg13
L5L
sg11
L52L
sg9
L57L
sbag2
(g3
g4
(L58L
L51L
L52L
L2L
I00
L6L
ttRp121
(dp122
g7
I00
sg8
g14
sg12
L2L
sg10
L51L
sg13
L6L
sg11
L52L
sg9
L58L
sbag2
(g3
g4
(L59L
L52L
L52L
L2L
I00
L7L
ttRp123
(dp124
g7
I00
sg8
g14
sg12
L2L
sg10
L52L
sg13
L7L
sg11
L52L
sg9
L59L
sbag2
(g3
g4
(L60L
L53L
L52L
L2L
I00
L8L
ttRp125
(dp126
g7
I00
sg8
g14
sg12
L2L
sg10
L53L
sg13
L8L
sg11
L52L
sg9
L60L
sbag2
(g3
g4
(L61L
L54L
L52L
L2L
I00
L9L
ttRp127
(dp128
g7
I00
sg8
g14
sg12
L2L
sg10
L54L
sg13
L9L
sg11
L52L
sg9
L61L
sbag2
(g3
g4
(L62L
L55L
L49L
L2L
I00
L4L
ttRp129
(dp130
g7
I00
sg8
g14
sg12
L2L
sg10
L55L
sg13
L4L
sg11
L49L
sg9
L62L
sbag2
(g3
g4
(L63L
L56L
L62L
L2L
I00
L1L
ttRp131
(dp132
g7
I00
sg8
g14
sg12
L2L
sg10
L56L
sg13
L1L
sg11
L62L
sg9
L63L
sbag2
(g3
g4
(L64L
L57L
L62L
L2L
I00
L2L
ttRp133
(dp134
g7
I00
sg8
g14
sg12
L2L
sg10
L57L
sg13
L2L
sg11
L62L
sg9
L64L
sbag2
(g3
g4
(L65L
L58L
L62L
L2L
I00
L3L
ttRp135
(dp136
g7
I00
sg8
g14
sg12
L2L
sg10
L58L
sg13
L3L
sg11
L62L
sg9
L65L
sbag2
(g3
g4
(L66L
L59L
L62L
L2L
I00
L4L
ttRp137
(dp138
g7
I00
sg8
g14
sg12
L2L
sg10
L59L
sg13
L4L
sg11
L62L
sg9
L66L
sbag2
(g3
g4
(L67L
L60L
L62L
L2L
I00
L5L
ttRp139
(dp140
g7
I00
sg8
g14
sg12
L2L
sg10
L60L
sg13
L5L
sg11
L62L
sg9
L67L
sbag2
(g3
g4
(L68L
L61L
L62L
L2L
I00
L6L
ttRp141
(dp142
g7
I00
sg8
g14
sg12
L2L
sg10
L61L
sg13
L6L
sg11
L62L
sg9
L68L
sbag2
(g3
g4
(L69L
L62L
L62L
L2L
I00
L7L
ttRp143
(dp144
g7
I00
sg8
g14
sg12
L2L
sg10
L62L
sg13
L7L
sg11
L62L
sg9
L69L
sbag2
(g3
g4
(L70L
L63L
L62L
L2L
I00
L8L
ttRp145
(dp146
g7
I00
sg8
g14
sg12
L2L
sg10
L63L
sg13
L8L
sg11
L62L
sg9
L70L
sbag2
(g3
g4
(L71L
L64L
L62L
L2L
I00
L9L
ttRp147
(dp148
g7
I00
sg8
g14
sg12
L2L
sg10
L64L
sg13
L9L
sg11
L62L
sg9
L71L
sbag2
(g3
g4
(L72L
L65L
L62L
L2L
I00
L10L
ttRp149
(dp150
g7
I00
sg8
g14
sg12
L2L
sg10
L65L
sg13
L10L
sg11
L62L
sg9
L72L
sbag2
(g3
g4
(L73L
L66L
L62L
L2L
I00
L11L
ttRp151
(dp152
g7
I00
sg8
g14
sg12
L2L
sg10
L66L
sg13
L11L
sg11
L62L
sg9
L73L
sbag2
(g3
g4
(L74L
L67L
L62L
L2L
I00
L12L
ttRp153
(dp154
g7
I00
sg8
g14
sg12
L2L
sg10
L67L
sg13
L12L
sg11
L62L
sg9
L74L
sbag2
(g3
g4
(L75L
L68L
L62L
L2L
I00
L13L
ttRp155
(dp156
g7
I00
sg8
g14
sg12
L2L
sg10
L68L
sg13
L13L
sg11
L62L
sg9
L75L
sbag2
(g3
g4
(L76L
L69L
L62L
L2L
I00
L14L
ttRp157
(dp158
g7
I00
sg8
g14
sg12
L2L
sg10
L69L
sg13
L14L
sg11
L62L
sg9
L76L
sbag2
(g3
g4
(L77L
L70L
L62L
L2L
I00
L15L
ttRp159
(dp160
g7
I00
sg8
g14
sg12
L2L
sg10
L70L
sg13
L15L
sg11
L62L
sg9
L77L
sbag2
(g3
g4
(L78L
L71L
L62L
L2L
I00
L16L
ttRp161
(dp162
g7
I00
sg8
g14
sg12
L2L
sg10
L71L
sg13
L16L
sg11
L62L
sg9
L78L
sbag2
(g3
g4
(L79L
L72L
L62L
L2L
I00
L17L
ttRp163
(dp164
g7
I00
sg8
g14
sg12
L2L
sg10
L72L
sg13
L17L
sg11
L62L
sg9
L79L
sbag2
(g3
g4
(L80L
L73L
L62L
L2L
I00
L18L
ttRp165
(dp166
g7
I00
sg8
g14
sg12
L2L
sg10
L73L
sg13
L18L
sg11
L62L
sg9
L80L
sbag2
(g3
g4
(L81L
L74L
L62L
L2L
I00
L19L
ttRp167
(dp168
g7
I00
sg8
g14
sg12
L2L
sg10
L74L
sg13
L19L
sg11
L62L
sg9
L81L
sbag2
(g3
g4
(L82L
L75L
L62L
L2L
I00
L20L
ttRp169
(dp170
g7
I00
sg8
g14
sg12
L2L
sg10
L75L
sg13
L20L
sg11
L62L
sg9
L82L
sbag2
(g3
g4
(L83L
L76L
L62L
L2L
I00
L21L
ttRp171
(dp172
g7
I00
sg8
g14
sg12
L2L
sg10
L76L
sg13
L21L
sg11
L62L
sg9
L83L
sbag2
(g3
g4
(L84L
L77L
L62L
L2L
I00
L22L
ttRp173
(dp174
g7
I00
sg8
g14
sg12
L2L
sg10
L77L
sg13
L22L
sg11
L62L
sg9
L84L
sbag2
(g3
g4
(L85L
L78L
L62L
L2L
I00
L23L
ttRp175
(dp176
g7
I00
sg8
g14
sg12
L2L
sg10
L78L
sg13
L23L
sg11
L62L
sg9
L85L
sbag2
(g3
g4
(L86L
L79L
L62L
L2L
I00
L24L
ttRp177
(dp178
g7
I00
sg8
g14
sg12
L2L
sg10
L79L
sg13
L24L
sg11
L62L
sg9
L86L
sbag2
(g3
g4
(L87L
L80L
L62L
L2L
I00
L25L
ttRp179
(dp180
g7
I00
sg8
g14
sg12
L2L
sg10
L80L
sg13
L25L
sg11
L62L
sg9
L87L
sbag2
(g3
g4
(L88L
L81L
L62L
L2L
I00
L26L
ttRp181
(dp182
g7
I00
sg8
g14
sg12
L2L
sg10
L81L
sg13
L26L
sg11
L62L
sg9
L88L
sbag2
(g3
g4
(L89L
L82L
L62L
L2L
I00
L27L
ttRp183
(dp184
g7
I00
sg8
g14
sg12
L2L
sg10
L82L
sg13
L27L
sg11
L62L
sg9
L89L
sbag2
(g3
g4
(L90L
L83L
L62L
L2L
I00
L28L
ttRp185
(dp186
g7
I00
sg8
g14
sg12
L2L
sg10
L83L
sg13
L28L
sg11
L62L
sg9
L90L
sbag2
(g3
g4
(L91L
L84L
L62L
L2L
I00
L29L
ttRp187
(dp188
g7
I00
sg8
g14
sg12
L2L
sg10
L84L
sg13
L29L
sg11
L62L
sg9
L91L
sbag2
(g3
g4
(L92L
L85L
L62L
L2L
I00
L30L
ttRp189
(dp190
g7
I00
sg8
g14
sg12
L2L
sg10
L85L
sg13
L30L
sg11
L62L
sg9
L92L
sbag2
(g3
g4
(L93L
L40L
L62L
L2L
I00
L31L
ttRp191
(dp192
g7
I00
sg8
g14
sg12
L2L
sg10
L40L
sg13
L31L
sg11
L62L
sg9
L93L
sbag2
(g3
g4
(L94L
L41L
L62L
L2L
I00
L32L
ttRp193
(dp194
g7
I00
sg8
g14
sg12
L2L
sg10
L41L
sg13
L32L
sg11
L62L
sg9
L94L
sbag2
(g3
g4
(L95L
L42L
L62L
L2L
I00
L33L
ttRp195
(dp196
g7
I00
sg8
g14
sg12
L2L
sg10
L42L
sg13
L33L
sg11
L62L
sg9
L95L
sbag2
(g3
g4
(L96L
L86L
L62L
L2L
I00
L34L
ttRp197
(dp198
g7
I00
sg8
g14
sg12
L2L
sg10
L86L
sg13
L34L
sg11
L62L
sg9
L96L
sbag2
(g3
g4
(L97L
L87L
L96L
L2L
I00
L1L
ttRp199
(dp200
g7
I00
sg8
g14
sg12
L2L
sg10
L87L
sg13
L1L
sg11
L96L
sg9
L97L
sbag2
(g3
g4
(L98L
L61L
L96L
L2L
I00
L2L
ttRp201
(dp202
g7
I00
sg8
g14
sg12
L2L
sg10
L61L
sg13
L2L
sg11
L96L
sg9
L98L
sbag2
(g3
g4
(L99L
L62L
L96L
L2L
I00
L3L
ttRp203
(dp204
g7
I00
sg8
g14
sg12
L2L
sg10
L62L
sg13
L3L
sg11
L96L
sg9
L99L
sbag2
(g3
g4
(L100L
L63L
L96L
L2L
I00
L4L
ttRp205
(dp206
g7
I00
sg8
g14
sg12
L2L
sg10
L63L
sg13
L4L
sg11
L96L
sg9
L100L
sbag2
(g3
g4
(L101L
L64L
L96L
L2L
I00
L5L
ttRp207
(dp208
g7
I00
sg8
g14
sg12
L2L
sg10
L64L
sg13
L5L
sg11
L96L
sg9
L101L
sbag2
(g3
g4
(L102L
L65L
L96L
L2L
I00
L6L
ttRp209
(dp210
g7
I00
sg8
g14
sg12
L2L
sg10
L65L
sg13
L6L
sg11
L96L
sg9
L102L
sbag2
(g3
g4
(L103L
L88L
L96L
L2L
I00
L7L
ttRp211
(dp212
g7
I00
sg8
g14
sg12
L2L
sg10
L88L
sg13
L7L
sg11
L96L
sg9
L103L
sbag2
(g3
g4
(L104L
L89L
L96L
L2L
I00
L8L
ttRp213
(dp214
g7
I00
sg8
g14
sg12
L2L
sg10
L89L
sg13
L8L
sg11
L96L
sg9
L104L
sbag2
(g3
g4
(L105L
L90L
L96L
L2L
I00
L9L
ttRp215
(dp216
g7
I00
sg8
g14
sg12
L2L
sg10
L90L
sg13
L9L
sg11
L96L
sg9
L105L
sbag2
(g3
g4
(L106L
L91L
L96L
L2L
I00
L10L
ttRp217
(dp218
g7
I00
sg8
g14
sg12
L2L
sg10
L91L
sg13
L10L
sg11
L96L
sg9
L106L
sbag2
(g3
g4
(L107L
L97L
L96L
L2L
I00
L11L
ttRp219
(dp220
g7
I00
sg8
g14
sg12
L2L
sg10
L97L
sg13
L11L
sg11
L96L
sg9
L107L
sbag2
(g3
g4
(L108L
L81L
L96L
L2L
I00
L12L
ttRp221
(dp222
g7
I00
sg8
g14
sg12
L2L
sg10
L81L
sg13
L12L
sg11
L96L
sg9
L108L
sbag2
(g3
g4
(L109L
L93L
L96L
L2L
I00
L13L
ttRp223
(dp224
g7
I00
sg8
g14
sg12
L2L
sg10
L93L
sg13
L13L
sg11
L96L
sg9
L109L
sbag2
(g3
g4
(L110L
L76L
L96L
L2L
I00
L14L
ttRp225
(dp226
g7
I00
sg8
g14
sg12
L2L
sg10
L76L
sg13
L14L
sg11
L96L
sg9
L110L
sbag2
(g3
g4
(L111L
L94L
L96L
L2L
I00
L15L
ttRp227
(dp228
g7
I00
sg8
g14
sg12
L2L
sg10
L94L
sg13
L15L
sg11
L96L
sg9
L111L
sbag2
(g3
g4
(L112L
L95L
L96L
L2L
I00
L16L
ttRp229
(dp230
g7
I00
sg8
g14
sg12
L2L
sg10
L95L
sg13
L16L
sg11
L96L
sg9
L112L
sbag2
(g3
g4
(L113L
L96L
L62L
L2L
I00
L35L
ttRp231
(dp232
g7
I00
sg8
g14
sg12
L2L
sg10
L96L
sg13
L35L
sg11
L62L
sg9
L113L
sba.